2000             TOS     equ 0FD00H        ;User stack grows before user global data.
2000             CNTLA0  equ 000H          ;144 ASCI0 Control Register A.
2000             STAT0   equ 004H          ;147 ASCI0 Status register.
2000             TDR0    equ 006H          ;148 ASCI0 Transmit Data Register.
2000             RDR0    equ 008H          ;149 ASCI0 Receive Data Register.
2000             ERROR   equ 3             ;CNTLA0->OVRN,FE,PE,BRK error flags.
2000             TDRE    equ 1             ;STAT0->Tx data register empty bit.
2000             OVERRUN equ 6             ;STAT0->OVERRUN bit.
2000             RDRF    equ 7             ;STAT0->Rx data register full bit.
2000                     .ORG  02000H      ;lowest external RAM address.
2000             start:
2000 31 00 FD            LD    SP,TOS
2003 C3 CE 21            JP    main
2006             ;****************
2006             ;sleepHL - Wait HL * 1 msec @ 18,432 MHz with no wait states
2006             ;  IN:  HL number of msec to wait
2006             ;  OUT: none
2006             ;  USES: 4 bytes on stack
2006             ;****************
2006             sleepHL:
2006 F5                  PUSH  AF
2007             sleep1:
2007 CD 18 20            CALL  WAIT1M      ;Wait 1 msec
200A 2B                  DEC   HL
200B 7C                  LD    A,H
200C B5                  OR    A,L
200D 20 F8               JR    NZ,sleep1
200F F1                  POP   AF
2010 C9                  RET
2011             ;****************
2011             ;sleepA - Wait A * 1 msec @ 18,432 MHz with no wait states
2011             ;  IN:  A number of msec to wait
2011             ;  OUT: none
2011             ;  USES: no stack
2011             ;****************
2011             sleepA:
2011 CD 18 20            CALL  WAIT1M      ;Wait 1 msec
2014 3D                  DEC   A
2015 20 F0               JR    NZ,sleepA
2017 C9                  RET
2018             ;****************
2018             ;WAIT1M
2018             ;wait 1 msec at 18,432 MHz with no wait states
2018             ;The routine requires 56+n*22 states, so that with n=834
2018             ;28  clock cycles remain left.
2018             ;****************
2018             WAIT1M:
2018 E5                  PUSH  HL          ;5      11 (11)
2019                                       ;       3 opcode
2019                                       ;       3 mem write
2019                                       ;       1 inc SP
2019                                       ;       3 mem write
2019                                       ;       1 inc SP
2019 F5                  PUSH  AF          ;5      11 (22)
201A                                       ;       3 opcode
201A                                       ;       3 mem write
201A                                       ;       1 inc SP
201A                                       ;       3 mem write
201A                                       ;       1 inc SP
201A 21 42 03            LD    HL, 834     ;3      9 (31)
201D                                       ;       3 opcode
201D                                       ;       3 mem read
201D                                       ;       3 mem read
201D             WAIT1M2:
201D 2B                  DEC   HL          ;2      4 (31+n*4)
201E                                       ;       3 opcode
201E                                       ;       1 execute
201E 7C                  LD    A,H         ;2      6 (31+n*10)
201F                                       ;       3 opcode
201F                                       ;       3 execute
201F B5                  OR    A,L         ;2      4 (31+n*14)
2020                                       ;       3 opcode
2020                                       ;       1 execute
2020 20 FB               JR    NZ,WAIT1M2  ;4      8 (31+n*22) if NZ
2022                                       ;       3 opcode
2022                                       ;       3 mem read
2022                                       ;       1 execute
2022                                       ;       1 execute
2022                                       ;2      6 (29+n*22) if not NZ
2022                                       ;       3 opcode
2022                                       ;       3 mem read
2022 F1                  POP   AF          ;3      9 (38+n*22)
2023                                       ;       3 opcode
2023                                       ;       3 mem read
2023                                       ;       3 mem read
2023 E1                  POP   HL          ;3      9 (47+n*22)
2024                                       ;       3 opcode
2024                                       ;       3 mem read
2024                                       ;       3 mem read
2024 C9                  RET               ;3      9 (56+n*22)
2025                                       ;       3 opcode
2025                                       ;       3 mem read
2025                                       ;       3 mem read
2025             ;****************
2025             ;getChar
2025             ;Check if an input character from ASCI0 is available.
2025             ;  IN:  none
2025             ;  OUT: F: ZERO flag set if no character is available.
2025             ;          ZERO flag reset if a character is available.
2025             ;       A : character from ASCI0, if available.
2025             ;  USES:AF
2025             ;****************
2025             getChar:
2025 ED 38 04            IN0   A,(STAT0)   ;read ASCI0 status
2028 CB 77               BIT   OVERRUN,A   ;check if ASCIO OVERRUN bit is set
202A 20 07               JR    NZ,getChar1 ;-yes: reset error flags
202C CB 7F               BIT   RDRF,A      ;check if ASCIO RDRF bit is set
202E C8                  RET   Z           ;-no: return without a character
202F ED 38 08            IN0   A,(RDR0)    ;-yes:read ASCIO Rx data register
2032 C9                  RET
2033             getChar1:
2033 ED 38 00            IN0   A,(CNTLA0)  ;read ASCI0 control register
2036 CB 9F               RES   ERROR,A     ;reset OVRN,FE,PE,BRK flags
2038 ED 39 00            OUT0  (CNTLA0),A  ;write back to ASCI0 CTRL
203B AF                  XOR   A,A
203C C9                  RET               ;return without a character
203D             ;****************
203D             ;putMsg
203D             ;Print via ASCI0 a zero terminated string, starting at the return address on the stack.
203D             ;  IN:  none.
203D             ;  OUT: none.
203D             ;  USES:none.
203D             ;****************
203D             putMsg:
203D E3                  EX    (SP),HL     ;save HL and load return address into HL.
203E CD 4A 20            CALL  writeStr
2041 E3                  EX    (SP),HL     ;put return address onto stack and restore HL.
2042 C9                  RET
2043             ;****************
2043             ;writeLineStr
2043             ;Print via ASCI0 a zero terminated string, pointed to by HL, followed by a carriage return.
2043             ;  IN:  HL:address of zero terminated string to be printed.
2043             ;  OUT: none.
2043             ;  USES:HL (point to byte after zero terminated string)
2043             ;****************
2043             writeLineStr:
2043 CD 4A 20            CALL  writeStr
2046 CD 66 20            CALL  putCRLF
2049 C9                  RET
204A             ;****************
204A             ;writeStr
204A             ;Print via ASCI0 a zero terminated string, pointed to by HL.
204A             ;  IN:  HL:address of zero terminated string to be printed.
204A             ;  OUT: none.
204A             ;  USES:HL (point to byte after zero terminated string)
204A             ;****************
204A             writeStr:
204A F5                  PUSH  AF          ;save registers
204B             putStr1:
204B 7E                  LD    A,(HL)      ;get next character
204C 23                  INC   HL
204D B7                  OR    A,A         ;is it zer0?
204E 28 05               JR    Z,putStr2   ;yes ->return
2050 CD 59 20            CALL  putChar     ;no->put it to ASCI0
2053 18 F6               JR    putStr1
2055             putStr2:
2055 F1                  POP   AF
2056 C9                  RET
2057             ;****************
2057             ;putSpace
2057             ;Send a space character to ASCI0
2057             ;  IN:  none.
2057             ;  OUT: none.
2057             ;  USES:AF
2057             ;****************
2057             putSpace:
2057 3E 20               LD    A,' '       ;load space and continue with putChar.
2059             ;****************
2059             ;putChar
2059             ;Send one character to ASCI0.
2059             ;  IN:  A = character
2059             ;  OUT: none.
2059             ;  USES:none.
2059             ;****************
2059             putChar:
2059 F5                  PUSH  AF          ;send the character via ASCI0
205A             putChar1:
205A ED 38 04            IN0   A,(STAT0)   ;read ASCI0 status register
205D CB 4F               BIT   TDRE,A      ;wait until TDRE <> 0
205F 28 F9               JR    Z,putChar1
2061 F1                  POP   AF          ;restore AF registers
2062 ED 39 06            OUT0  (TDR0),A    ;write character to ASCI0
2065 C9                  RET
2066             ;****************
2066             ;putCRLF
2066             ;Send CR and LF to ASCI0
2066             ;  IN:  none.
2066             ;  OUT: none.
2066             ;  USES:none.
2066             ;****************
2066             putCRLF:
2066 F5                  PUSH  AF
2067 3E 0D               LD    A,'\r'       ;print carriage return
2069 CD 59 20            CALL  putChar
206C 3E 0A               LD    A,'\n'       ;print line feed
206E CD 59 20            CALL  putChar
2071 F1                  POP   AF
2072 C9                  RET
2073             ;****************
2073             ;putErase
2073             ;Erase the latest character at ASCI0
2073             ;  IN:  none.
2073             ;  OUT: none.
2073             ;  USES:AF
2073             ;****************
2073             putErase:
2073 3E 08               LD    A,'\b'       ;print backspace
2075 CD 59 20            CALL  putChar
2078 CD 57 20            CALL  putSpace    ;print space (erase character)
207B 3E 08               LD    A,'\b'      ;print backspace
207D 18 DA               JR    putChar
207F             ;****************
207F             ;putBell
207F             ;Send a Bell character to ASCI0
207F             ;  IN:  none.
207F             ;  OUT: none.
207F             ;  USES:AF
207F             ;****************
207F             putBell:
207F 3E 07               LD    A,07        ;ring the bell at ASCI0
2081 18 D6               JR    putChar
2083             ;****************
2083             ;putHexHL
2083             ;Print HL register pair as 4 hex digits
2083             ;  IN:  HL = word to be printed.
2083             ;  OUT: none.
2083             ;  USES:none.
2083             ;****************
2083             putHexHL:
2083 F5                  PUSH  AF          ;save used registers
2084 7C                  LD    A,H         ;print H as 2 hex digits
2085 CD 8E 20            CALL  putHexA
2088 7D                  LD    A,L         ;print L as 2 hex digits
2089 CD 8E 20            CALL  putHexA
208C F1                  POP   AF          ;restore used registers
208D C9                  RET
208E             ;****************
208E             ;putHexA
208E             ;Print A register as 2 hex digits
208E             ;  IN:  A = byte to be printed
208E             ;  OUT: none.
208E             ;  USES:none.
208E             ;****************
208E             putHexA:
208E F5                  PUSH  AF          ;save input
208F 1F                  RRA               ;shift upper nibble to the right
2090 1F                  RRA
2091 1F                  RRA
2092 1F                  RRA
2093 CD 97 20            CALL  putHexA1    ;print upper nibble
2096 F1                  POP   AF          ;restore input & print lower nibble
2097             putHexA1:
2097 F5                  PUSH  AF          ;save input
2098 E6 0F               AND   A,00FH      ;mask lower nibble
209A C6 30               ADD   A,'0'       ;convert to hex digit
209C FE 3A               CP    A,'9'+1
209E 38 02               JR    C,putHexA2
20A0 C6 07               ADD   A,07
20A2             putHexA2:
20A2 CD 59 20            CALL  putChar
20A5 F1                  POP   AF          ;restore input
20A6 C9                  RET               ;and return
20A7             ;****************
20A7             ;mul16
20A7             ;16 by 16 bit unsigned multiplication with 16 bit result.
20A7             ;  IN:  HL = operand 1
20A7             ;       DE = operand 2
20A7             ;  OUT: HL = HL * DE low part
20A7             ;  USES:DE
20A7             ;  Size   25 bytes
20A7             ;  Time  160 cycles
20A7             ;****************
20A7             mul16:
20A7                     ;HL = HL * DE
20A7                     ;        H  L
20A7                     ;        D  E
20A7                     ;    --------*
20A7                     ;          EL
20A7                     ;       EH  0
20A7                     ;       DL  0
20A7                     ; -----------+
20A7                     ;        R  S
20A7                     ;S = ELlow
20A7                     ;R = ELhigh+EHlow+DLlow
20A7 C5                  PUSH  BC          ;11  11 save BC
20A8 44                  LD    B,H         ; 4  15 copy HL to BC
20A9 4D                  LD    C,L         ; 4  19
20AA 63                  LD    H,E         ; 4  23 HL contains EL
20AB ED 6C               MLT   HL          ;17  40
20AD E5                  PUSH  HL          ;11  51
20AE 63                  LD    H,E         ; 4  55 HL contains EH aka EB
20AF 68                  LD    L,B         ; 4  59
20B0 ED 6C               MLT   HL          ;17  76
20B2 45                  LD    B,L         ; 4  80 save EHlow in B
20B3 62                  LD    H,D         ; 4  84 HL contains DL aka DC
20B4 69                  LD    L,C         ; 4  88
20B5 ED 6C               MLT   HL          ;17 105
20B7 55                  LD    D,L         ; 4 109 DLlow into DE
20B8 1E 00               LD    E,0         ; 6 115
20BA E1                  POP   HL          ; 9 124 add EL+DElow
20BB 19                  ADD   HL,DE       ; 7 131
20BC 50                  LD    D,B         ; 4 135 add EL+DElow+EHlow
20BD 19                  ADD   HL,DE       ; 7 142
20BE C1                  POP   BC          ; 9 151 restore BC
20BF C9                  RET               ; 9 160
20C0             ;****************
20C0             ;mul16_10
20C0             ;multiply a 16 bit unsigned number by 10 with a 16 bit result.
20C0             ;  IN:  HL = operand
20C0             ;  OUT: HL = HL * 10; low part
20C0             ;  USES:Flags
20C0             ;  Size   9 bytes
20C0             ;  Time   65 cycles
20C0             ;****************
20C0             mul16_10:
20C0 D5                  PUSH  DE          ;11 11
20C1 54                  LD    D,H         ; 4 15
20C2 5D                  LD    E,L         ; 4 19
20C3 29                  ADD   HL,HL       ; 7 26 times 2
20C4 29                  ADD   HL,HL       ; 7 33 times 4
20C5 19                  ADD   HL,DE       ; 7 40 times 5
20C6 29                  ADD   HL,HL       ; 7 47 times 10
20C7 D1                  POP   DE          ; 9 56
20C8 C9                  RET               ; 9 65
20C9             ;****************
20C9             ;mul16_8
20C9             ;16 by 8 bit unsigned multiplication with 16 bit result.
20C9             ;  IN:  HL = operand 1
20C9             ;        A = operand 2
20C9             ;  OUT: HL = HL * A low part
20C9             ;  USES:AF
20C9             ;  Size   .. bytes
20C9             ;  Time  ... cycles
20C9             ;****************
20C9             mul16_8:
20C9                     ;HL = HL * A
20C9                     ;        H  L
20C9                     ;           A
20C9                     ;    --------*
20C9                     ;          AL
20C9                     ;       AH  0
20C9                     ; -----------+
20C9                     ;        R  S
20C9                     ;S = ALlow
20C9                     ;R = ALhigh+AHlow
20C9 C5                  PUSH  BC          ;11  11 save BC
20CA 44                  LD    B,H         ; 4  15
20CB 47                  LD    C,A         ; 4  19
20CC 67                  LD    H,A         ; 4  23
20CD ED 6C               MLT   HL          ;17  40 HL = AL
20CF ED 4C               MLT   BC          ;17  57 BC = AH
20D1 7C                  LD    A,H         ; 4  61 A = S = ALhigh+AHlow
20D2 81                  ADD   A,C         ; 4  65
20D3 67                  LD    H,A         ; 4  69
20D4 C1                  POP   BC          ; 9  78 | 289 restore BC
20D5 C9                  RET               ; 9  87 | 307
20D6             ;****************
20D6             ;mul1632
20D6             ;16 by 16 bit unsigned multiplication with 32 bit result.
20D6             ;  IN:  HL = operand 1
20D6             ;       DE = operand 2
20D6             ;  OUT: HL = HL * DE low part
20D6             ;       DE = HL * DE high part
20D6             ;  USES:-
20D6             ;  Size 49 bytes
20D6             ;  Time between 303 en 307 cycles
20D6             ;****************
20D6             mul1632:
20D6                     ;HL = HL * DE
20D6                     ;        H  L
20D6                     ;        D  E
20D6                     ;    --------*
20D6                     ;          EL
20D6                     ;       EH  0
20D6                     ;       DL  0
20D6                     ;    DH  0  0
20D6                     ; -----------+
20D6                     ;  P  Q  R  S
20D6                     ;S = ELlow
20D6                     ;R = ELhigh+EHlow+DLlow
20D6                     ;Q = DHlow+EHhigh+DLhigh
20D6                     ;P = DHhigh
20D6 F5                  PUSH  AF          ;11  11 save AF
20D7 C5                  PUSH  BC          ;11  22 save BC
20D8 44                  LD    B,H         ; 4  26
20D9 4D                  LD    C,L         ; 4  30
20DA 62                  LD    H,D         ; 4  34 HL contains DH aka DB
20DB 68                  LD    L,B         ; 4  38
20DC ED 6C               MLT   HL          ;17  55
20DE E5                  PUSH  HL          ;11  66
20DF 62                  LD    H,D         ; 4  70 HL contains DL aka DC
20E0 69                  LD    L,C         ; 4  74
20E1 ED 6C               MLT   HL          ;17  91
20E3 E5                  PUSH  HL          ;11 102
20E4 63                  LD    H,E         ; 4 106 HL contains EH aka EB
20E5 68                  LD    L,B         ; 4 110
20E6 ED 6C               MLT   HL          ;17 127
20E8 E5                  PUSH  HL          ;11 138
20E9 63                  LD    H,E         ; 4 142 HL contains EL aka EC
20EA 69                  LD    L,C         ; 4 146
20EB ED 6C               MLT   HL          ;17 163
20ED D1                  POP   DE          ; 9 172 calculate RS=EL+EH0
20EE 06 00               LD    B,0         ; 6 178
20F0 4A                  LD    C,D         ; 4 182 ..C=EHhigh
20F1 53                  LD    D,E         ; 4 186 ..D=EHlow
20F2 1E 00               LD    E,0         ; 6 192
20F4 19                  ADD   HL,DE       ; 7 199
20F5 30 01               JR    NC,mul16321 ; 8 207 | 6 205 add carry to PQ
20F7 03                  INC   BC          ;         4 209
20F8             mul16321:
20F8 D1                  POP   DE          ; 9 209 | 211 calculate RS=EL+EH0+DL0
20F9 7A                  LD    A,D         ; 4 220 | 222 ..A=DLhigh
20FA 53                  LD    D,E         ; 4 224 | 226 ..D=DLlow
20FB 19                  ADD   HL,DE       ; 7 231 | 233
20FC 30 01               JR    NC,mul16322 ; 8 239 | 6 239 add carry to PQ
20FE 03                  INC   BC          ;         4 243
20FF             mul16322:
20FF                                       ;HL=RS=EL+EH0+DL0
20FF                                       ;C=EHhigh
20FF                                       ;A=DLhigh
20FF                                       ;E=0
20FF EB                  EX    DE,HL       ; 3 242 | 246
2100 65                  LD    H,L         ; 4 246 | 250 ..E was 0, so H=L=0
2101 6F                  LD    L,A         ; 4 250 | 254 ..HL=DLhigh
2102 09                  ADD   HL,BC       ; 7 257 | 261 PQ=EHhigh+DLhigh+DH
2103 C1                  POP   BC          ; 9 266 | 270
2104 09                  ADD   HL,BC       ; 7 273 | 277
2105 EB                  EX    DE,HL       ; 3 276 | 280
2106                                       ;D=P=DHhigh
2106                                       ;E=Q=DHlow+EHhigh+DLhigh
2106                                       ;H=R=ELhigh+EHlow+DLlow
2106                                       ;L=S=ELlow
2106 C1                  POP   BC          ; 9 285 | 289 restore BC
2107 F1                  POP   AF          ; 9 294 | 298 restore AF
2108 C9                  RET               ; 9 303 | 307
2109             ;****************
2109             ;mul16S
2109             ;16 by 16 bit slow unsigned multiplication with 32 bit result.
2109             ;  IN:  HL = operand 1
2109             ;       DE = operand 2
2109             ;  OUT: DE = HL * DE high part
2109             ;       HL = HL * DE low part
2109             ;  USES:none.
2109             ;  Size 26 bytes
2109             ;  Time between 726 en 998 cycles
2109             ;****************
2109             mul16S:
2109 F5                  PUSH  AF          ;11  11 save AF
210A C5                  PUSH  BC          ;11  22 save BC
210B 44                  LD    B,H         ; 4  26
210C 4D                  LD    C,L         ; 4  30
210D 21 00 00            LD    HL,0        ; 9  39
2110 3E 10               LD    A,16        ; 6  45
2112             mul16S1:
2112 29                  ADD   HL,HL       ;16*7=112 157
2113 CB 13               RL    E           ;16*7=112 269
2115 CB 12               RL    D           ;16*7=112 381
2117 30 04               JR    NC,mul16S2  ;16*8=128 509 16*6= 96 477
2119 09                  ADD   HL,BC       ;             16*7=112 589
211A 30 01               JR    NC,mul16S2  ;             16*8=128 717 16*6=96 685
211C 13                  INC   DE          ;             16*4= 64 781 16*4=64 749 This instruction (with the jump) is like an "ADC DE,0"
211D             mul16S2:
211D 3D                  DEC   A           ;16*4=64    573 | 845 | 813
211E 20 F2               JR    NZ,mul16S1  ;15*8+6=126 699 | 971 | 939
2120 C1                  POP   BC          ; 9         708 | 980 | 948 restore BC
2121 F1                  POP   AF          ; 9         717 | 989 | 957 restore AF
2122 C9                  RET               ; 9         726 | 998 | 966
2123             ;****************
2123             ;div16
2123             ;16 by 16 bit unsigned division.
2123             ;  IN:  HL = dividend
2123             ;       DE = divisor
2123             ;  OUT: HL = quotient
2123             ;       DE = remainder
2123             ;  USES:-
2123             ;  Size   32 bytes
2123             ;  Time   between 1073 en 1121 cycles
2123             ;pseudo code:
2123             ;T = AC = dividend
2123             ;D = DE = divisor
2123             ;Q = AC = quotient = 0
2123             ;R = HL = remainder = 0
2123             ;invariante betrekking:
2123             ; D/T\Q     
2123             ;   R       
2123             ; T = QD + R
2123             ; T <= 2^N  
2123             ;
2123             ; D/T'.RT\Q'      
2123             ;   R'             
2123             ; RT <= 2^N        
2123             ; 0<=k<=N          
2123             ; RT = T % 2^k     
2123             ; T' = (T-RT) / 2^k
2123             ; Q' = T' / D      
2123             ; R' = T' % D      
2123             ;
2123             ;for (i=16; i>0; i--) {
2123             ;  T = T * 2 (remember MSB in carry)
2123             ;  R = R * 2 + carry
2123             ;  Q = Q * 2
2123             ;  if (R >= D) {
2123             ;    R = R - D;
2123             ;    Q++;
2123             ;  }
2123             ;}
2123             ;return Q (in HL) and R (in DE)
2123             ;****************
2123             div16:
2123 F5                  PUSH  AF          ;11  11 save registers used
2124 C5                  PUSH  BC          ;11  22
2125 4D                  LD    C,L         ; 4  26 T(AC) = teller from input (HL)
2126 7C                  LD    A,H         ; 4  30 D(DE) = deler from input  (DE)
2127 21 00 00            LD    HL,0        ; 9  39 R(HL) = restant; Q(AC) = quotient
212A 06 10               LD    B,16        ; 6  45 for (i=16; i>0; i--)
212C             div16_1:
212C CB 21               SLA   C           ;16* 7=112 157   T = T * 2 (remember MSB in carry)
212E CB 17               RL    A           ;16* 7=112 269   Q = Q * 2
2130 ED 6A               ADC   HL,HL       ;16*10=160 429   R = R * 2 + carry
2132 B7                  OR    A,A         ;16* 4= 64 493   if (R >= D) {
2133 ED 52               SBC   HL,DE       ;16*10=160 653
2135 38 03               JR    C,div16_2   ;16* 8=128 781 16*6= 96 749   R = R - D
2137 0C                  INC   C           ;              16*4= 64 813   Q++
2138 18 01               JR    div16_3     ;              16*8=128 941
213A             div16_2:
213A 19                  ADD   HL,DE       ;16* 7=112 893  (compensate comparison)
213B             div16_3:
213B 10 EF               DJNZ  div16_1     ;15*9+7=142 1035 | 1083 }
213D EB                  EX    DE,HL       ; 3 1038 | 1086 swap remainder (HL) into DE
213E 67                  LD    H,A         ; 4 1042 | 1090 move quotient (AC) into HL
213F 69                  LD    L,C         ; 4 1046 | 1094
2140 C1                  POP   BC          ; 9 1055 | 1103
2141 F1                  POP   AF          ; 9 1064 | 1112
2142 C9                  RET               ; 9 1073 | 1121
2143             ;****************
2143             ;div16_8
2143             ;16 by 8 bit unsigned division.
2143             ;  IN:  HL = dividend
2143             ;       A  = divisor
2143             ;  OUT: HL = quotient
2143             ;       A  = remainder
2143             ;  USES:F(lags)
2143             ;  Size 18 bytes
2143             ;  Time between 601 en 697 cycles
2143             ;****************
2143             div16_8:
2143 C5                  PUSH  BC          ;11 11 save registers used
2144 06 10               LD    B,16        ; 6 17 the length of the dividend (16 bits)
2146 4F                  LD    C,A         ; 4 21 move divisor to C
2147 AF                  XOR   A,A         ; 4 25 clear upper 8 bits of AHL
2148             div16_82:
2148 29                  ADD   HL,HL       ;16*7=112 137 advance dividend (HL) into selected bits (A)
2149 CB 17               RL    A           ;16*7=112 249
214B B9                  CP    A,C         ;16*4= 64 313 check if divisor (E) <= selected digits (A)
214C 38 02               JR    C,div16_83  ;16*8=128 441 16*6=96 409 if not, advance without subtraction
214E 91                  SUB   A,C         ;             16*4=64 473 subtract the divisor
214F 2C                  INC   L           ;             16*4=64 537 and set the next digit of the quotient
2150             div16_83:
2150 10 F6               DJNZ  div16_82    ;15*9+7=142 583 679
2152 C1                  POP   BC          ;9 592 688
2153 C9                  RET               ;9 601 697
2154             ;****************
2154             ;div8
2154             ;8 by 8 bit unsigned division.
2154             ;  IN:  A = dividend
2154             ;       C = divisor
2154             ;  OUT: A = quotient
2154             ;       C = remainder
2154             ;  USES:F(lags)
2154             ;  Size 26 bytes
2154             ;  Time between 411 and 459 cycles
2154             ;****************
2154             ;pseudo code:
2154             ;T = dividend
2154             ;D = divisor
2154             ;Q = quotient = 0
2154             ;R = remainder = 0
2154             ;invariante betrekking:
2154             ; T = QD + R
2154             ; T <= 2^8  
2154             ;
2154             ; D/T'.RT\Q'      
2154             ;   R'             
2154             ; RT <= 2^8        
2154             ; 0<=k<=8          
2154             ; RT = T % 2^k     
2154             ; T' = (T-RT) / 2^k
2154             ; Q' = T' / D      
2154             ; R' = T' % D      
2154             ;
2154             ;for (i=8; i>0; i--) {
2154             ;  T = T * 2 (remember MSB in carry)
2154             ;  R = R * 2 + carry
2154             ;  Q = Q * 2
2154             ;  if (R >= D) {
2154             ;    R = R - D;
2154             ;    Q++;
2154             ;  }
2154             ;}
2154             ;return Q (in A) and R (in C)
2154             ;****************
2154             ;E = T = dividend
2154             ;C = D = divisor
2154             ;D = Q = quotient
2154             ;A = R = remainder
2154             ;****************
2154             ;  IN:  A = dividend
2154             ;       C  = divisor
2154             div8:
2154 D5                  PUSH  DE          ;11 11 save registers used
2155 C5                  PUSH  BC          ;11 22 save registers used
2156 06 08               LD    B,8         ; 6 28 the length of the dividend (8 bits)
2158 16 00               LD    D,0         ; 6 34 D = Q = quotient = 0
215A 5F                  LD    E,A         ; 4 38 E = T = dividend
215B AF                  XOR   A,A         ; 4 42 A = R = remainder = 0
215C             div8_1:
215C CB 23               SLA   E           ;8*7=56  98            T[E] = T[E] * 2 (remember MSB in carry)
215E CB 17               RL    A           ;8*7=56 154            R[A] = R[A] * 2 + carry
2160 CB 22               SLA   D           ;8*7=56 210            Q[D] = Q[D] * 2
2162 B9                  CP    A,C         ;8*4=32 242            if (R[A] - D[C] >= 0) {
2163 38 02               JR    C,div8_2    ;8*8=64 306 8*6=48 290
2165 91                  SUB   A,C         ;           8*4=32 322   R[A] = R[A] - D[C];
2166 14                  INC   D           ;           8*4=32 354   Q[D]++;
2167             div8_2:           ;                      }
2167 10 F3               DJNZ  div8_1      ;7*9+7=70 376 424      }
2169 C1                  POP   BC          ;9        385 433
216A 4F                  LD    C,A         ;4        389 437      return Remainder[A] in C
216B 7A                  LD    A,D         ;4        393 441      return Quotient[D] in A
216C D1                  POP   DE          ;9        402 450
216D C9                  RET               ;9        411 459
216E             ;****************
216E             ;div8_16
216E             ;8 by 16 bit unsigned division.
216E             ;  IN:  A = dividend
216E             ;       HL = divisor
216E             ;  OUT: A = quotient
216E             ;       C = remainder
216E             ;  USES:F(lags)
216E             ;  Size 13 bytes (plus dependency on div8)
216E             ;  Time 31 or between 436 and 484 cycles
216E             ;****************
216E             ;invariante betrekking:
216E             ; T = dividend
216E             ; D = divisor
216E             ; Q = quotient
216E             ; R = remainder
216E             ; T = QD + R
216E             ;pseudo code:
216E             ; if D >= 256 {
216E             ;   R = T
216E             ;   Q = 0
216E             ; } else {
216E             ;   R = T/D (using div8)
216E             ;   Q = T%D (using div8)
216E             ; }
216E             ;****************
216E             
216E             
216E             div8_16:
216E 4F                  LD    C,A         ;  4  4         save dividend(A) in C
216F 7C                  LD    A,H         ;  4  8         if D >= 256 {
2170 B7                  OR    A,A         ;  4 12
2171 28 02               JR    Z,div8_161  ;  6 18  8  20
2173 AF                  XOR   A,A         ;  4 22           R = T;
2174 C9                  RET               ;  9 31           Q = 0;
2175             div8_161:                     ;               } else {
2175 79                  LD    A,C         ;        4  24    restore dividend into A
2176 4D                  LD    C,L         ;        4  28    load divisor (HL) into C
2177 CD 54 21            CALL  div8        ; 16+411/16+459               R = T/D; Q = T%D;
217A C9                  RET               ; 9  436/484    }
217B             ;****************
217B             ;read
217B             ;read a 16 bit unsigned number from the input
217B             ;  IN:  none
217B             ;  OUT: HL = 16 bit unsigned number
217B             ;  USES:-
217B             ;****************
217B             read:
217B F5                  PUSH  AF
217C 21 00 00            LD    HL,0        ;result = 0;
217F             read1:
217F CD 25 20            CALL  getChar     ;check if a character is available.
2182 28 FB               JR    Z,read1     ;-no: wait for it.
2184 FE 0D               CP    A,'\r'      ;return if char == Carriage Return
2186 28 0C               JR    Z,read2
2188 CD C0 20            CALL  mul16_10    ;result *= 10;
218B D6 30               SUB   A,'0'       ;digit = char - '0';
218D 85                  ADD   A,L         ;result += digit;
218E 6F                  LD    L,A
218F 30 EE               JR    NC,read1     ;get next character
2191 24                  INC   H
2192 18 EB               JR    read1        ;get next character
2194             read2:
2194 F1                  POP   AF
2195 C9                  RET
2196             ;****************
2196             ;writeLineHL
2196             ;write a 16 bit unsigned number to the output, followed by a carriage return
2196             ;  IN:  HL = 16 bit unsigned number
2196             ;  OUT: none
2196             ;  USES:HL
2196             ;****************
2196             writeLineHL:
2196 CD 9D 21            CALL  writeHL
2199 CD 66 20            CALL  putCRLF
219C C9                  RET
219D             ;****************
219D             ;writeHL
219D             ;write a 16 bit unsigned number to the output
219D             ;  IN:  HL = 16 bit unsigned number
219D             ;  OUT: none
219D             ;  USES:HL
219D             ;****************
219D             writeHL:
219D C5                  PUSH  BC          ;save registers used
219E F5                  PUSH  AF
219F 06 00               LD    B,0         ;number of digits on stack
21A1 7C                  LD    A,H         ;is HL=0?
21A2 B5                  OR    A,L
21A3 20 03               JR    NZ,writeHL1
21A5 04                  INC   B           ;write a single digit 0
21A6 18 0C               JR    writeHL3
21A8             writeHL1:
21A8 3E 0A               LD    A,10        ;divide HL by 10
21AA CD 43 21            CALL  div16_8
21AD F5                  PUSH  AF          ;put remainder on stack
21AE 04                  INC   B
21AF 7C                  LD    A,H         ;is quotient 0?
21B0 B5                  OR    A,L
21B1 20 F5               JR    NZ,writeHL1
21B3             writeHL2:
21B3 F1                  POP   AF          ;write digit
21B4             writeHL3:
21B4 C6 30               ADD   A,'0'
21B6 CD 59 20            CALL  putChar
21B9 10 F8               DJNZ  writeHL2
21BB F1                  POP   AF          ;restore registers used
21BC C1                  POP   BC
21BD C9                  RET
21BE             ;****************
21BE             ;writeLineA
21BE             ;write an 8-bit unsigned number to the output, followed by a carriage return
21BE             ;  IN:  A = 8-bit unsigned number
21BE             ;  OUT: none
21BE             ;  USES:none
21BE             ;****************
21BE             writeLineA:
21BE CD C5 21            CALL  writeA
21C1 CD 66 20            CALL  putCRLF
21C4 C9                  RET
21C5             ;****************
21C5             ;writeA
21C5             ;write an 8-bit unsigned number to the output
21C5             ;  IN:  A = 8-bit unsigned number
21C5             ;  OUT: none
21C5             ;  USES:none
21C5             ;****************
21C5             writeA:
21C5 E5                  PUSH  HL          ;save registers used
21C6 26 00               LD    H,0
21C8 6F                  LD    L,A
21C9 CD 9D 21            CALL  writeHL
21CC E1                  POP   HL
21CD C9                  RET
21CE             main:
21CE             L0:
21CE                     ;;test6.j(0) /*
21CE             L1:
21CE                     ;;test6.j(1)  * A small program in the miniJava language.
21CE             L2:
21CE                     ;;test6.j(2)  * Test 8-bit and 16-bit expressions.
21CE             L3:
21CE                     ;;test6.j(3)  */
21CE             L4:
21CE                     ;;test6.j(4) class Test8And16BitExpressions {
21CE             L5:
21CE                     ;;test6.j(5)   println(0);         // 0
21CE             L6:
21CE 3E 00               LD    A,0
21D0             L7:
21D0 CD BE 21            CALL  writeLineA
21D3             L8:
21D3                     ;;test6.j(6)   //LD    A,0
21D3             L9:
21D3                     ;;test6.j(7)   //CALL  writeA
21D3             L10:
21D3                     ;;test6.j(8)   //OK
21D3             L11:
21D3                     ;;test6.j(9) 
21D3             L12:
21D3                     ;;test6.j(10)   /*********************/
21D3             L13:
21D3                     ;;test6.j(11)   /* Single term 8-bit */
21D3             L14:
21D3                     ;;test6.j(12)   /*********************/
21D3             L15:
21D3                     ;;test6.j(13)   byte b = 1;
21D3             L16:
21D3 3E 01               LD    A,1
21D5             L17:
21D5 32 00 50            LD    (05000H),A
21D8             L18:
21D8                     ;;test6.j(14)   byte c = 4;
21D8             L19:
21D8 3E 04               LD    A,4
21DA             L20:
21DA 32 01 50            LD    (05001H),A
21DD             L21:
21DD                     ;;test6.j(15)   println(b);         // 1
21DD             L22:
21DD 3A 00 50            LD    A,(05000H)
21E0             L23:
21E0 CD BE 21            CALL  writeLineA
21E3             L24:
21E3                     ;;test6.j(16)   //LD    A,1
21E3             L25:
21E3                     ;;test6.j(17)   //LD    (04000H),A
21E3             L26:
21E3                     ;;test6.j(18)   //LD    A,(04000H)
21E3             L27:
21E3                     ;;test6.j(19)   //CALL  writeA
21E3             L28:
21E3                     ;;test6.j(20)   //OK
21E3             L29:
21E3                     ;;test6.j(21) 
21E3             L30:
21E3                     ;;test6.j(22)   /************************/
21E3             L31:
21E3                     ;;test6.j(23)   /* Dual term addition   */
21E3             L32:
21E3                     ;;test6.j(24)   /************************/
21E3             L33:
21E3                     ;;test6.j(25)   println(0 + 2);     // 2
21E3             L34:
21E3 3E 00               LD    A,0
21E5             L35:
21E5 C6 02               ADD   A,2
21E7             L36:
21E7 CD BE 21            CALL  writeLineA
21EA             L37:
21EA                     ;;test6.j(26)   println(b + 2);     // 3
21EA             L38:
21EA 3A 00 50            LD    A,(05000H)
21ED             L39:
21ED C6 02               ADD   A,2
21EF             L40:
21EF CD BE 21            CALL  writeLineA
21F2             L41:
21F2                     ;;test6.j(27)   println(3 + b);     // 4
21F2             L42:
21F2 3E 03               LD    A,3
21F4             L43:
21F4 47                  LD    B,A
21F5 3A 00 50            LD    A,(05000H)
21F8 80                  ADD   A,B
21F9             L44:
21F9 CD BE 21            CALL  writeLineA
21FC             L45:
21FC                     ;;test6.j(28)   println(b + c);     // 5
21FC             L46:
21FC 3A 00 50            LD    A,(05000H)
21FF             L47:
21FF 47                  LD    B,A
2200 3A 01 50            LD    A,(05001H)
2203 80                  ADD   A,B
2204             L48:
2204 CD BE 21            CALL  writeLineA
2207             L49:
2207                     ;;test6.j(29) 
2207             L50:
2207                     ;;test6.j(30)   c = 4 + 2;
2207             L51:
2207 3E 04               LD    A,4
2209             L52:
2209 C6 02               ADD   A,2
220B             L53:
220B 32 01 50            LD    (05001H),A
220E             L54:
220E                     ;;test6.j(31)   println(c);         // 6
220E             L55:
220E 3A 01 50            LD    A,(05001H)
2211             L56:
2211 CD BE 21            CALL  writeLineA
2214             L57:
2214                     ;;test6.j(32)   c = b + 6;
2214             L58:
2214 3A 00 50            LD    A,(05000H)
2217             L59:
2217 C6 06               ADD   A,6
2219             L60:
2219 32 01 50            LD    (05001H),A
221C             L61:
221C                     ;;test6.j(33)   println(c);         // 7
221C             L62:
221C 3A 01 50            LD    A,(05001H)
221F             L63:
221F CD BE 21            CALL  writeLineA
2222             L64:
2222                     ;;test6.j(34)   c = 7 + b;
2222             L65:
2222 3E 07               LD    A,7
2224             L66:
2224 47                  LD    B,A
2225 3A 00 50            LD    A,(05000H)
2228 80                  ADD   A,B
2229             L67:
2229 32 01 50            LD    (05001H),A
222C             L68:
222C                     ;;test6.j(35)   println(c);         // 8
222C             L69:
222C 3A 01 50            LD    A,(05001H)
222F             L70:
222F CD BE 21            CALL  writeLineA
2232             L71:
2232                     ;;test6.j(36)   c = b + c;
2232             L72:
2232 3A 00 50            LD    A,(05000H)
2235             L73:
2235 47                  LD    B,A
2236 3A 01 50            LD    A,(05001H)
2239 80                  ADD   A,B
223A             L74:
223A 32 01 50            LD    (05001H),A
223D             L75:
223D                     ;;test6.j(37)   println(c);         // 9
223D             L76:
223D 3A 01 50            LD    A,(05001H)
2240             L77:
2240 CD BE 21            CALL  writeLineA
2243             L78:
2243                     ;;test6.j(38) 
2243             L79:
2243                     ;;test6.j(39) 
2243             L80:
2243                     ;;test6.j(40)   word i = 10;
2243             L81:
2243 3E 0A               LD    A,10
2245             L82:
2245 6F                  LD    L,A
2246 26 00               LD    H,0
2248 22 02 50            LD    (05002H),HL
224B             L83:
224B                     ;;test6.j(41)   println(i);         // 10
224B             L84:
224B 2A 02 50            LD    HL,(05002H)
224E             L85:
224E CD 96 21            CALL  writeLineHL
2251             L86:
2251                     ;;test6.j(42)   //LD    A,10
2251             L87:
2251                     ;;test6.j(43)   //LD    L,A
2251             L88:
2251                     ;;test6.j(44)   //LD    H,0
2251             L89:
2251                     ;;test6.j(45)   //LD    (04004H),HL
2251             L90:
2251                     ;;test6.j(46)   //OK
2251             L91:
2251                     ;;test6.j(47)   
2251             L92:
2251                     ;;test6.j(48)   println(i + 1);     // 11
2251             L93:
2251 2A 02 50            LD    HL,(05002H)
2254             L94:
2254 11 01 00            LD    DE,1
2257 19                  ADD   HL,DE
2258             L95:
2258 CD 96 21            CALL  writeLineHL
225B             L96:
225B                     ;;test6.j(49)   println(2 + i);     // 12
225B             L97:
225B 3E 02               LD    A,2
225D             L98:
225D 6F                  LD    L,A
225E 26 00               LD    H,0
2260             L99:
2260 ED 5B 02 50         LD    DE,(05002H)
2264 19                  ADD   HL,DE
2265             L100:
2265 CD 96 21            CALL  writeLineHL
2268             L101:
2268                     ;;test6.j(50)   b = 3;
2268             L102:
2268 3E 03               LD    A,3
226A             L103:
226A 32 00 50            LD    (05000H),A
226D             L104:
226D                     ;;test6.j(51)   println(i + b);     // 13
226D             L105:
226D 2A 02 50            LD    HL,(05002H)
2270             L106:
2270 47                  LD    B,A
2271 3A 00 50            LD    A,(05000H)
2274 5F                  LD    E,A
2275 78                  LD    A,B
2276 16 00               LD    D,0
2278 19                  ADD   HL,DE
2279             L107:
2279 CD 96 21            CALL  writeLineHL
227C             L108:
227C                     ;;test6.j(52)   b++; //4
227C             L109:
227C 2A 00 50            LD    HL,(05000H)
227F 34                  INC   (HL)
2280             L110:
2280                     ;;test6.j(53)   println(b + i);     // 14
2280             L111:
2280 3A 00 50            LD    A,(05000H)
2283             L112:
2283 6F                  LD    L,A
2284 26 00               LD    H,0
2286             L113:
2286 ED 5B 02 50         LD    DE,(05002H)
228A 19                  ADD   HL,DE
228B             L114:
228B CD 96 21            CALL  writeLineHL
228E             L115:
228E                     ;;test6.j(54) 
228E             L116:
228E                     ;;test6.j(55)   word j = i + 5;    // 15
228E             L117:
228E 2A 02 50            LD    HL,(05002H)
2291             L118:
2291 11 05 00            LD    DE,5
2294 19                  ADD   HL,DE
2295             L119:
2295 22 04 50            LD    (05004H),HL
2298             L120:
2298                     ;;test6.j(56)   println(j);
2298             L121:
2298 2A 04 50            LD    HL,(05004H)
229B             L122:
229B CD 96 21            CALL  writeLineHL
229E             L123:
229E                     ;;test6.j(57)   j = 6 + i;        // 16
229E             L124:
229E 3E 06               LD    A,6
22A0             L125:
22A0 6F                  LD    L,A
22A1 26 00               LD    H,0
22A3             L126:
22A3 ED 5B 02 50         LD    DE,(05002H)
22A7 19                  ADD   HL,DE
22A8             L127:
22A8 22 04 50            LD    (05004H),HL
22AB             L128:
22AB                     ;;test6.j(58)   println(j);
22AB             L129:
22AB 2A 04 50            LD    HL,(05004H)
22AE             L130:
22AE CD 96 21            CALL  writeLineHL
22B1             L131:
22B1                     ;;test6.j(59)   j = 7;
22B1             L132:
22B1 3E 07               LD    A,7
22B3             L133:
22B3 6F                  LD    L,A
22B4 26 00               LD    H,0
22B6 22 04 50            LD    (05004H),HL
22B9             L134:
22B9                     ;;test6.j(60)   j = i + j;        // 17
22B9             L135:
22B9 2A 02 50            LD    HL,(05002H)
22BC             L136:
22BC ED 5B 04 50         LD    DE,(05004H)
22C0 19                  ADD   HL,DE
22C1             L137:
22C1 22 04 50            LD    (05004H),HL
22C4             L138:
22C4                     ;;test6.j(61)   println(j);
22C4             L139:
22C4 2A 04 50            LD    HL,(05004H)
22C7             L140:
22C7 CD 96 21            CALL  writeLineHL
22CA             L141:
22CA                     ;;test6.j(62) 
22CA             L142:
22CA                     ;;test6.j(63)   /*************************/
22CA             L143:
22CA                     ;;test6.j(64)   /* Dual term subtraction */
22CA             L144:
22CA                     ;;test6.j(65)   /*************************/
22CA             L145:
22CA                     ;;test6.j(66)   b = 33;
22CA             L146:
22CA 3E 21               LD    A,33
22CC             L147:
22CC 32 00 50            LD    (05000H),A
22CF             L148:
22CF                     ;;test6.j(67)   c = 12;
22CF             L149:
22CF 3E 0C               LD    A,12
22D1             L150:
22D1 32 01 50            LD    (05001H),A
22D4             L151:
22D4                     ;;test6.j(68)   println(19 - 1);    // 18
22D4             L152:
22D4 3E 13               LD    A,19
22D6             L153:
22D6 D6 01               SUB   A,1
22D8             L154:
22D8 CD BE 21            CALL  writeLineA
22DB             L155:
22DB                     ;;test6.j(69)   println(b - 14);    // 19
22DB             L156:
22DB 3A 00 50            LD    A,(05000H)
22DE             L157:
22DE D6 0E               SUB   A,14
22E0             L158:
22E0 CD BE 21            CALL  writeLineA
22E3             L159:
22E3                     ;;test6.j(70)   println(53 - b);    // 20
22E3             L160:
22E3 3E 35               LD    A,53
22E5             L161:
22E5 47                  LD    B,A
22E6 3A 00 50            LD    A,(05000H)
22E9 90                  SUB   A,B
22EA             L162:
22EA CD BE 21            CALL  writeLineA
22ED             L163:
22ED                     ;;test6.j(71)   println(b - c);     // 21
22ED             L164:
22ED 3A 00 50            LD    A,(05000H)
22F0             L165:
22F0 47                  LD    B,A
22F1 3A 01 50            LD    A,(05001H)
22F4 90                  SUB   A,B
22F5             L166:
22F5 CD BE 21            CALL  writeLineA
22F8             L167:
22F8                     ;;test6.j(72) 
22F8             L168:
22F8                     ;;test6.j(73)   c = 24 - 2;
22F8             L169:
22F8 3E 18               LD    A,24
22FA             L170:
22FA D6 02               SUB   A,2
22FC             L171:
22FC 32 01 50            LD    (05001H),A
22FF             L172:
22FF                     ;;test6.j(74)   println(c);         // 22
22FF             L173:
22FF 3A 01 50            LD    A,(05001H)
2302             L174:
2302 CD BE 21            CALL  writeLineA
2305             L175:
2305                     ;;test6.j(75)   c = b - 10;
2305             L176:
2305 3A 00 50            LD    A,(05000H)
2308             L177:
2308 D6 0A               SUB   A,10
230A             L178:
230A 32 01 50            LD    (05001H),A
230D             L179:
230D                     ;;test6.j(76)   println(c);         // 23
230D             L180:
230D 3A 01 50            LD    A,(05001H)
2310             L181:
2310 CD BE 21            CALL  writeLineA
2313             L182:
2313                     ;;test6.j(77)   c = 57 - b;
2313             L183:
2313 3E 39               LD    A,57
2315             L184:
2315 47                  LD    B,A
2316 3A 00 50            LD    A,(05000H)
2319 90                  SUB   A,B
231A             L185:
231A 32 01 50            LD    (05001H),A
231D             L186:
231D                     ;;test6.j(78)   println(c);         // 24
231D             L187:
231D 3A 01 50            LD    A,(05001H)
2320             L188:
2320 CD BE 21            CALL  writeLineA
2323             L189:
2323                     ;;test6.j(79)   c = 8;
2323             L190:
2323 3E 08               LD    A,8
2325             L191:
2325 32 01 50            LD    (05001H),A
2328             L192:
2328                     ;;test6.j(80)   c = b - c;
2328             L193:
2328 3A 00 50            LD    A,(05000H)
232B             L194:
232B 47                  LD    B,A
232C 3A 01 50            LD    A,(05001H)
232F 90                  SUB   A,B
2330             L195:
2330 32 01 50            LD    (05001H),A
2333             L196:
2333                     ;;test6.j(81)   println(c);         // 25
2333             L197:
2333 3A 01 50            LD    A,(05001H)
2336             L198:
2336 CD BE 21            CALL  writeLineA
2339             L199:
2339                     ;;test6.j(82) 
2339             L200:
2339                     ;;test6.j(83)   i = 40;
2339             L201:
2339 3E 28               LD    A,40
233B             L202:
233B 6F                  LD    L,A
233C 26 00               LD    H,0
233E 22 02 50            LD    (05002H),HL
2341             L203:
2341                     ;;test6.j(84)   println(i - 14);    // 26
2341             L204:
2341 2A 02 50            LD    HL,(05002H)
2344             L205:
2344 11 0E 00            LD    DE,14
2347 B7                  OR    A
2348 ED 52               SBC   HL,DE
234A             L206:
234A CD 96 21            CALL  writeLineHL
234D             L207:
234D                     ;;test6.j(85)   println(67 - i);    // 27
234D             L208:
234D 3E 43               LD    A,67
234F             L209:
234F 6F                  LD    L,A
2350 26 00               LD    H,0
2352             L210:
2352 ED 5B 02 50         LD    DE,(05002H)
2356 B7                  OR    A
2357 ED 52               SBC   HL,DE
2359             L211:
2359 CD 96 21            CALL  writeLineHL
235C             L212:
235C                     ;;test6.j(86)   b = 12;
235C             L213:
235C 3E 0C               LD    A,12
235E             L214:
235E 32 00 50            LD    (05000H),A
2361             L215:
2361                     ;;test6.j(87)   println(i - b);     // 28
2361             L216:
2361 2A 02 50            LD    HL,(05002H)
2364             L217:
2364 47                  LD    B,A
2365 3A 00 50            LD    A,(05000H)
2368 5F                  LD    E,A
2369 78                  LD    A,B
236A 16 00               LD    D,0
236C B7                  OR    A
236D ED 52               SBC   HL,DE
236F             L218:
236F CD 96 21            CALL  writeLineHL
2372             L219:
2372                     ;;test6.j(88)   b = 69;
2372             L220:
2372 3E 45               LD    A,69
2374             L221:
2374 32 00 50            LD    (05000H),A
2377             L222:
2377                     ;;test6.j(89)   println(b - i);     // 29
2377             L223:
2377 3A 00 50            LD    A,(05000H)
237A             L224:
237A 6F                  LD    L,A
237B 26 00               LD    H,0
237D             L225:
237D ED 5B 02 50         LD    DE,(05002H)
2381 B7                  OR    A
2382 ED 52               SBC   HL,DE
2384             L226:
2384 CD 96 21            CALL  writeLineHL
2387             L227:
2387                     ;;test6.j(90) 
2387             L228:
2387                     ;;test6.j(91)   j = i - 10;
2387             L229:
2387 2A 02 50            LD    HL,(05002H)
238A             L230:
238A 11 0A 00            LD    DE,10
238D B7                  OR    A
238E ED 52               SBC   HL,DE
2390             L231:
2390 22 04 50            LD    (05004H),HL
2393             L232:
2393                     ;;test6.j(92)   println(j);         // 30
2393             L233:
2393 2A 04 50            LD    HL,(05004H)
2396             L234:
2396 CD 96 21            CALL  writeLineHL
2399             L235:
2399                     ;;test6.j(93)   j = 71 - i;
2399             L236:
2399 3E 47               LD    A,71
239B             L237:
239B 6F                  LD    L,A
239C 26 00               LD    H,0
239E             L238:
239E ED 5B 02 50         LD    DE,(05002H)
23A2 B7                  OR    A
23A3 ED 52               SBC   HL,DE
23A5             L239:
23A5 22 04 50            LD    (05004H),HL
23A8             L240:
23A8                     ;;test6.j(94)   println(j);         // 31
23A8             L241:
23A8 2A 04 50            LD    HL,(05004H)
23AB             L242:
23AB CD 96 21            CALL  writeLineHL
23AE             L243:
23AE                     ;;test6.j(95)   j = 8;
23AE             L244:
23AE 3E 08               LD    A,8
23B0             L245:
23B0 6F                  LD    L,A
23B1 26 00               LD    H,0
23B3 22 04 50            LD    (05004H),HL
23B6             L246:
23B6                     ;;test6.j(96)   j = i - j;
23B6             L247:
23B6 2A 02 50            LD    HL,(05002H)
23B9             L248:
23B9 ED 5B 04 50         LD    DE,(05004H)
23BD B7                  OR    A
23BE ED 52               SBC   HL,DE
23C0             L249:
23C0 22 04 50            LD    (05004H),HL
23C3             L250:
23C3                     ;;test6.j(97)   println(j);         // 32
23C3             L251:
23C3 2A 04 50            LD    HL,(05004H)
23C6             L252:
23C6 CD 96 21            CALL  writeLineHL
23C9             L253:
23C9                     ;;test6.j(98)   
23C9             L254:
23C9                     ;;test6.j(99)   /****************************/
23C9             L255:
23C9                     ;;test6.j(100)   /* Dual term multiplication */
23C9             L256:
23C9                     ;;test6.j(101)   /****************************/
23C9             L257:
23C9                     ;;test6.j(102)   println(3 * 11);    // 33
23C9             L258:
23C9 3E 03               LD    A,3
23CB             L259:
23CB 47                  LD    B,A
23CC 0E 0B               LD    C,11
23CE ED 4C               MLT   BC
23D0 79                  LD    A,C
23D1             L260:
23D1 CD BE 21            CALL  writeLineA
23D4             L261:
23D4                     ;;test6.j(103)   b = 17;
23D4             L262:
23D4 3E 11               LD    A,17
23D6             L263:
23D6 32 00 50            LD    (05000H),A
23D9             L264:
23D9                     ;;test6.j(104)   println(b * 2);     // 34
23D9             L265:
23D9 3A 00 50            LD    A,(05000H)
23DC             L266:
23DC 47                  LD    B,A
23DD 0E 02               LD    C,2
23DF ED 4C               MLT   BC
23E1 79                  LD    A,C
23E2             L267:
23E2 CD BE 21            CALL  writeLineA
23E5             L268:
23E5                     ;;test6.j(105)   b = 7;
23E5             L269:
23E5 3E 07               LD    A,7
23E7             L270:
23E7 32 00 50            LD    (05000H),A
23EA             L271:
23EA                     ;;test6.j(106)   println(5 * b);     // 35
23EA             L272:
23EA 3E 05               LD    A,5
23EC             L273:
23EC 47                  LD    B,A
23ED 3A 00 50            LD    A,(05000H)
23F0 4F                  LD    C,A
23F1 ED 4C               MLT   BC
23F3 79                  LD    A,C
23F4             L274:
23F4 CD BE 21            CALL  writeLineA
23F7             L275:
23F7                     ;;test6.j(107)   b = 2;
23F7             L276:
23F7 3E 02               LD    A,2
23F9             L277:
23F9 32 00 50            LD    (05000H),A
23FC             L278:
23FC                     ;;test6.j(108)   c = 18;
23FC             L279:
23FC 3E 12               LD    A,18
23FE             L280:
23FE 32 01 50            LD    (05001H),A
2401             L281:
2401                     ;;test6.j(109)   println(b * c);     // 36
2401             L282:
2401 3A 00 50            LD    A,(05000H)
2404             L283:
2404 47                  LD    B,A
2405 3A 01 50            LD    A,(05001H)
2408 4F                  LD    C,A
2409 ED 4C               MLT   BC
240B 79                  LD    A,C
240C             L284:
240C CD BE 21            CALL  writeLineA
240F             L285:
240F                     ;;test6.j(110)   
240F             L286:
240F                     ;;test6.j(111)   c = 37 * 1;
240F             L287:
240F 3E 25               LD    A,37
2411             L288:
2411 47                  LD    B,A
2412 0E 01               LD    C,1
2414 ED 4C               MLT   BC
2416 79                  LD    A,C
2417             L289:
2417 32 01 50            LD    (05001H),A
241A             L290:
241A                     ;;test6.j(112)   println(c);         // 37
241A             L291:
241A 3A 01 50            LD    A,(05001H)
241D             L292:
241D CD BE 21            CALL  writeLineA
2420             L293:
2420                     ;;test6.j(113)   b = 2;
2420             L294:
2420 3E 02               LD    A,2
2422             L295:
2422 32 00 50            LD    (05000H),A
2425             L296:
2425                     ;;test6.j(114)   c = b * 19;
2425             L297:
2425 3A 00 50            LD    A,(05000H)
2428             L298:
2428 47                  LD    B,A
2429 0E 13               LD    C,19
242B ED 4C               MLT   BC
242D 79                  LD    A,C
242E             L299:
242E 32 01 50            LD    (05001H),A
2431             L300:
2431                     ;;test6.j(115)   println(c);         // 38
2431             L301:
2431 3A 01 50            LD    A,(05001H)
2434             L302:
2434 CD BE 21            CALL  writeLineA
2437             L303:
2437                     ;;test6.j(116)   b = 3;
2437             L304:
2437 3E 03               LD    A,3
2439             L305:
2439 32 00 50            LD    (05000H),A
243C             L306:
243C                     ;;test6.j(117)   c = 13 * b;
243C             L307:
243C 3E 0D               LD    A,13
243E             L308:
243E 47                  LD    B,A
243F 3A 00 50            LD    A,(05000H)
2442 4F                  LD    C,A
2443 ED 4C               MLT   BC
2445 79                  LD    A,C
2446             L309:
2446 32 01 50            LD    (05001H),A
2449             L310:
2449                     ;;test6.j(118)   println(c);         // 39
2449             L311:
2449 3A 01 50            LD    A,(05001H)
244C             L312:
244C CD BE 21            CALL  writeLineA
244F             L313:
244F                     ;;test6.j(119)   b = 5;
244F             L314:
244F 3E 05               LD    A,5
2451             L315:
2451 32 00 50            LD    (05000H),A
2454             L316:
2454                     ;;test6.j(120)   c = 8;
2454             L317:
2454 3E 08               LD    A,8
2456             L318:
2456 32 01 50            LD    (05001H),A
2459             L319:
2459                     ;;test6.j(121)   c = b * c;
2459             L320:
2459 3A 00 50            LD    A,(05000H)
245C             L321:
245C 47                  LD    B,A
245D 3A 01 50            LD    A,(05001H)
2460 4F                  LD    C,A
2461 ED 4C               MLT   BC
2463 79                  LD    A,C
2464             L322:
2464 32 01 50            LD    (05001H),A
2467             L323:
2467                     ;;test6.j(122)   println(c);         // 40
2467             L324:
2467 3A 01 50            LD    A,(05001H)
246A             L325:
246A CD BE 21            CALL  writeLineA
246D             L326:
246D                     ;;test6.j(123) 
246D             L327:
246D                     ;;test6.j(124)   /**********************/
246D             L328:
246D                     ;;test6.j(125)   /* Dual term division */
246D             L329:
246D                     ;;test6.j(126)   /**********************/
246D             L330:
246D                     ;;test6.j(127)   println(123 / 3);   // 41
246D             L331:
246D 3E 7B               LD    A,123
246F             L332:
246F 0E 03               LD    C,3
2471 CD 54 21            CALL  div8
2474             L333:
2474 CD BE 21            CALL  writeLineA
2477             L334:
2477                     ;;test6.j(128)   b = 126;
2477             L335:
2477 3E 7E               LD    A,126
2479             L336:
2479 32 00 50            LD    (05000H),A
247C             L337:
247C                     ;;test6.j(129)   println(b / 3);     // 42
247C             L338:
247C 3A 00 50            LD    A,(05000H)
247F             L339:
247F 0E 03               LD    C,3
2481 CD 54 21            CALL  div8
2484             L340:
2484 CD BE 21            CALL  writeLineA
2487             L341:
2487                     ;;test6.j(130)   b = 3;
2487             L342:
2487 3E 03               LD    A,3
2489             L343:
2489 32 00 50            LD    (05000H),A
248C             L344:
248C                     ;;test6.j(131)   println(129 / b);   // 43
248C             L345:
248C 3E 81               LD    A,129
248E             L346:
248E 4F                  LD    B,A
248F 3A 00 50            LD    A,(05000H)
2492 4F                  LD    C,A
2493 78                  LD    A,B
2494 CD 54 21            CALL  div8
2497             L347:
2497 CD BE 21            CALL  writeLineA
249A             L348:
249A                     ;;test6.j(132)   b = 132;
249A             L349:
249A 3E 84               LD    A,132
249C             L350:
249C 32 00 50            LD    (05000H),A
249F             L351:
249F                     ;;test6.j(133)   c = 3;
249F             L352:
249F 3E 03               LD    A,3
24A1             L353:
24A1 32 01 50            LD    (05001H),A
24A4             L354:
24A4                     ;;test6.j(134)   println(b / c);     // 44
24A4             L355:
24A4 3A 00 50            LD    A,(05000H)
24A7             L356:
24A7 4F                  LD    B,A
24A8 3A 01 50            LD    A,(05001H)
24AB 4F                  LD    C,A
24AC 78                  LD    A,B
24AD CD 54 21            CALL  div8
24B0             L357:
24B0 CD BE 21            CALL  writeLineA
24B3             L358:
24B3                     ;;test6.j(135)   
24B3             L359:
24B3                     ;;test6.j(136)   c = 135 / 3;
24B3             L360:
24B3 3E 87               LD    A,135
24B5             L361:
24B5 0E 03               LD    C,3
24B7 CD 54 21            CALL  div8
24BA             L362:
24BA 32 01 50            LD    (05001H),A
24BD             L363:
24BD                     ;;test6.j(137)   println(c);         // 45
24BD             L364:
24BD 3A 01 50            LD    A,(05001H)
24C0             L365:
24C0 CD BE 21            CALL  writeLineA
24C3             L366:
24C3                     ;;test6.j(138)   b = 138;
24C3             L367:
24C3 3E 8A               LD    A,138
24C5             L368:
24C5 32 00 50            LD    (05000H),A
24C8             L369:
24C8                     ;;test6.j(139)   c = b / 3;
24C8             L370:
24C8 3A 00 50            LD    A,(05000H)
24CB             L371:
24CB 0E 03               LD    C,3
24CD CD 54 21            CALL  div8
24D0             L372:
24D0 32 01 50            LD    (05001H),A
24D3             L373:
24D3                     ;;test6.j(140)   println(c);         // 46
24D3             L374:
24D3 3A 01 50            LD    A,(05001H)
24D6             L375:
24D6 CD BE 21            CALL  writeLineA
24D9             L376:
24D9                     ;;test6.j(141)   b = 3;
24D9             L377:
24D9 3E 03               LD    A,3
24DB             L378:
24DB 32 00 50            LD    (05000H),A
24DE             L379:
24DE                     ;;test6.j(142)   c = 141 / b;
24DE             L380:
24DE 3E 8D               LD    A,141
24E0             L381:
24E0 4F                  LD    B,A
24E1 3A 00 50            LD    A,(05000H)
24E4 4F                  LD    C,A
24E5 78                  LD    A,B
24E6 CD 54 21            CALL  div8
24E9             L382:
24E9 32 01 50            LD    (05001H),A
24EC             L383:
24EC                     ;;test6.j(143)   println(c);         // 47
24EC             L384:
24EC 3A 01 50            LD    A,(05001H)
24EF             L385:
24EF CD BE 21            CALL  writeLineA
24F2             L386:
24F2                     ;;test6.j(144)   b = 144;
24F2             L387:
24F2 3E 90               LD    A,144
24F4             L388:
24F4 32 00 50            LD    (05000H),A
24F7             L389:
24F7                     ;;test6.j(145)   c = 3;
24F7             L390:
24F7 3E 03               LD    A,3
24F9             L391:
24F9 32 01 50            LD    (05001H),A
24FC             L392:
24FC                     ;;test6.j(146)   c = b / c;
24FC             L393:
24FC 3A 00 50            LD    A,(05000H)
24FF             L394:
24FF 4F                  LD    B,A
2500 3A 01 50            LD    A,(05001H)
2503 4F                  LD    C,A
2504 78                  LD    A,B
2505 CD 54 21            CALL  div8
2508             L395:
2508 32 01 50            LD    (05001H),A
250B             L396:
250B                     ;;test6.j(147)   println(c);         // 48
250B             L397:
250B 3A 01 50            LD    A,(05001H)
250E             L398:
250E CD BE 21            CALL  writeLineA
2511             L399:
2511                     ;;test6.j(148) 
2511             L400:
2511                     ;;test6.j(149)   /*************************/
2511             L401:
2511                     ;;test6.j(150)   /* possible loss of data */
2511             L402:
2511                     ;;test6.j(151)   /*************************/
2511             L403:
2511                     ;;test6.j(152)   println("Nu komen 251 en 252");
2511             L404:
2511 21 7B 03            LD    HL,891
2514             L405:
2514 CD 43 20            CALL  writeLineStr
2517             L406:
2517                     ;;test6.j(153)   b = 507;
2517             L407:
2517 21 FB 01            LD    HL,507
251A             L408:
251A 7D                  LD    A,L
251B 32 00 50            LD    (05000H),A
251E             L409:
251E                     ;;test6.j(154)   println(b);         // 251
251E             L410:
251E 3A 00 50            LD    A,(05000H)
2521             L411:
2521 CD BE 21            CALL  writeLineA
2524             L412:
2524                     ;;test6.j(155)   i = 508;
2524             L413:
2524 21 FC 01            LD    HL,508
2527             L414:
2527 22 02 50            LD    (05002H),HL
252A             L415:
252A                     ;;test6.j(156)   b = i;
252A             L416:
252A 2A 02 50            LD    HL,(05002H)
252D             L417:
252D 7D                  LD    A,L
252E 32 00 50            LD    (05000H),A
2531             L418:
2531                     ;;test6.j(157)   println(b);         // 252
2531             L419:
2531 3A 00 50            LD    A,(05000H)
2534             L420:
2534 CD BE 21            CALL  writeLineA
2537             L421:
2537                     ;;test6.j(158) 
2537             L422:
2537                     ;;test6.j(159)   println("Nu komen -253 en -254");
2537             L423:
2537 21 7C 03            LD    HL,892
253A             L424:
253A CD 43 20            CALL  writeLineStr
253D             L425:
253D                     ;;test6.j(160)   b = b - 505;
253D             L426:
253D 3A 00 50            LD    A,(05000H)
2540             L427:
2540 6F                  LD    L,A
2541 26 00               LD    H,0
2543             L428:
2543 11 F9 01            LD    DE,505
2546 B7                  OR    A
2547 ED 52               SBC   HL,DE
2549             L429:
2549 7D                  LD    A,L
254A 32 00 50            LD    (05000H),A
254D             L430:
254D                     ;;test6.j(161)   println(b);         // 252 - 505 = -253
254D             L431:
254D 3A 00 50            LD    A,(05000H)
2550             L432:
2550 CD BE 21            CALL  writeLineA
2553             L433:
2553                     ;;test6.j(162)   i = i + 5;
2553             L434:
2553 2A 02 50            LD    HL,(05002H)
2556             L435:
2556 11 05 00            LD    DE,5
2559 19                  ADD   HL,DE
255A             L436:
255A 22 02 50            LD    (05002H),HL
255D             L437:
255D                     ;;test6.j(163)   b = b - i;
255D             L438:
255D 3A 00 50            LD    A,(05000H)
2560             L439:
2560 6F                  LD    L,A
2561 26 00               LD    H,0
2563             L440:
2563 ED 5B 02 50         LD    DE,(05002H)
2567 B7                  OR    A
2568 ED 52               SBC   HL,DE
256A             L441:
256A 7D                  LD    A,L
256B 32 00 50            LD    (05000H),A
256E             L442:
256E                     ;;test6.j(164)   println(b);         // -233 - 11 = -254
256E             L443:
256E 3A 00 50            LD    A,(05000H)
2571             L444:
2571 CD BE 21            CALL  writeLineA
2574             L445:
2574                     ;;test6.j(165)   
2574             L446:
2574                     ;;test6.j(166)   println("Nu komen 255 en 256");
2574             L447:
2574 21 7D 03            LD    HL,893
2577             L448:
2577 CD 43 20            CALL  writeLineStr
257A             L449:
257A                     ;;test6.j(167)   b = 255;
257A             L450:
257A 3E FF               LD    A,255
257C             L451:
257C 32 00 50            LD    (05000H),A
257F             L452:
257F                     ;;test6.j(168)   println(b);         // 255
257F             L453:
257F 3A 00 50            LD    A,(05000H)
2582             L454:
2582 CD BE 21            CALL  writeLineA
2585             L455:
2585                     ;;test6.j(169)   //LD    A,255
2585             L456:
2585                     ;;test6.j(170)   //LD    (04001H),A
2585             L457:
2585                     ;;test6.j(171)   //LD    A,(04001H)
2585             L458:
2585                     ;;test6.j(172)   //CALL  writeA
2585             L459:
2585                     ;;test6.j(173)   //OK
2585             L460:
2585                     ;;test6.j(174) 
2585             L461:
2585                     ;;test6.j(175)   /**********************/
2585             L462:
2585                     ;;test6.j(176)   /* Single term 16-bit */
2585             L463:
2585                     ;;test6.j(177)   /**********************/
2585             L464:
2585                     ;;test6.j(178)   i = 256;
2585             L465:
2585 21 00 01            LD    HL,256
2588             L466:
2588 22 02 50            LD    (05002H),HL
258B             L467:
258B                     ;;test6.j(179)   println(i);         // 256
258B             L468:
258B 2A 02 50            LD    HL,(05002H)
258E             L469:
258E CD 96 21            CALL  writeLineHL
2591             L470:
2591                     ;;test6.j(180)   //LD    HL,256
2591             L471:
2591                     ;;test6.j(181)   //LD    (04006H),HL
2591             L472:
2591                     ;;test6.j(182)   //LD    HL,(04006H)
2591             L473:
2591                     ;;test6.j(183)   //CALL  writeHL
2591             L474:
2591                     ;;test6.j(184)   //OK
2591             L475:
2591                     ;;test6.j(185) 
2591             L476:
2591                     ;;test6.j(186)   println("Nu komen 1000..1047");
2591             L477:
2591 21 7E 03            LD    HL,894
2594             L478:
2594 CD 43 20            CALL  writeLineStr
2597             L479:
2597                     ;;test6.j(187)   println(1000);      // 1000
2597             L480:
2597 21 E8 03            LD    HL,1000
259A             L481:
259A CD 96 21            CALL  writeLineHL
259D             L482:
259D                     ;;test6.j(188)   j = 1001;
259D             L483:
259D 21 E9 03            LD    HL,1001
25A0             L484:
25A0 22 04 50            LD    (05004H),HL
25A3             L485:
25A3                     ;;test6.j(189)   println(j);         // 1001
25A3             L486:
25A3 2A 04 50            LD    HL,(05004H)
25A6             L487:
25A6 CD 96 21            CALL  writeLineHL
25A9             L488:
25A9                     ;;test6.j(190) 
25A9             L489:
25A9                     ;;test6.j(191)   /************************/
25A9             L490:
25A9                     ;;test6.j(192)   /* Dual term addition   */
25A9             L491:
25A9                     ;;test6.j(193)   /************************/
25A9             L492:
25A9                     ;;test6.j(194)   println(1000 + 2);  // 1002
25A9             L493:
25A9 21 E8 03            LD    HL,1000
25AC             L494:
25AC 11 02 00            LD    DE,2
25AF 19                  ADD   HL,DE
25B0             L495:
25B0 CD 96 21            CALL  writeLineHL
25B3             L496:
25B3                     ;;test6.j(195)   println(3 + 1000);  // 1003
25B3             L497:
25B3 3E 03               LD    A,3
25B5             L498:
25B5 6F                  LD    L,A
25B6 26 00               LD    H,0
25B8             L499:
25B8 11 E8 03            LD    DE,1000
25BB 19                  ADD   HL,DE
25BC             L500:
25BC CD 96 21            CALL  writeLineHL
25BF             L501:
25BF                     ;;test6.j(196)   println(500 + 504); // 1004
25BF             L502:
25BF 21 F4 01            LD    HL,500
25C2             L503:
25C2 11 F8 01            LD    DE,504
25C5 19                  ADD   HL,DE
25C6             L504:
25C6 CD 96 21            CALL  writeLineHL
25C9             L505:
25C9                     ;;test6.j(197)   i = 1000 + 5;
25C9             L506:
25C9 21 E8 03            LD    HL,1000
25CC             L507:
25CC 11 05 00            LD    DE,5
25CF 19                  ADD   HL,DE
25D0             L508:
25D0 22 02 50            LD    (05002H),HL
25D3             L509:
25D3                     ;;test6.j(198)   println(i);         // 1005
25D3             L510:
25D3 2A 02 50            LD    HL,(05002H)
25D6             L511:
25D6 CD 96 21            CALL  writeLineHL
25D9             L512:
25D9                     ;;test6.j(199)   i = 6 + 1000;
25D9             L513:
25D9 3E 06               LD    A,6
25DB             L514:
25DB 6F                  LD    L,A
25DC 26 00               LD    H,0
25DE             L515:
25DE 11 E8 03            LD    DE,1000
25E1 19                  ADD   HL,DE
25E2             L516:
25E2 22 02 50            LD    (05002H),HL
25E5             L517:
25E5                     ;;test6.j(200)   println(i);         // 1006
25E5             L518:
25E5 2A 02 50            LD    HL,(05002H)
25E8             L519:
25E8 CD 96 21            CALL  writeLineHL
25EB             L520:
25EB                     ;;test6.j(201)   i = 500 + 507;
25EB             L521:
25EB 21 F4 01            LD    HL,500
25EE             L522:
25EE 11 FB 01            LD    DE,507
25F1 19                  ADD   HL,DE
25F2             L523:
25F2 22 02 50            LD    (05002H),HL
25F5             L524:
25F5                     ;;test6.j(202)   println(i);         // 1007
25F5             L525:
25F5 2A 02 50            LD    HL,(05002H)
25F8             L526:
25F8 CD 96 21            CALL  writeLineHL
25FB             L527:
25FB                     ;;test6.j(203)   
25FB             L528:
25FB                     ;;test6.j(204)   j = 1000;
25FB             L529:
25FB 21 E8 03            LD    HL,1000
25FE             L530:
25FE 22 04 50            LD    (05004H),HL
2601             L531:
2601                     ;;test6.j(205)   b = 10;
2601             L532:
2601 3E 0A               LD    A,10
2603             L533:
2603 32 00 50            LD    (05000H),A
2606             L534:
2606                     ;;test6.j(206)   i = 514;
2606             L535:
2606 21 02 02            LD    HL,514
2609             L536:
2609 22 02 50            LD    (05002H),HL
260C             L537:
260C                     ;;test6.j(207)   println(j + 8);     // 1008
260C             L538:
260C 2A 04 50            LD    HL,(05004H)
260F             L539:
260F 11 08 00            LD    DE,8
2612 19                  ADD   HL,DE
2613             L540:
2613 CD 96 21            CALL  writeLineHL
2616             L541:
2616                     ;;test6.j(208)   println(9 + j);     // 1009
2616             L542:
2616 3E 09               LD    A,9
2618             L543:
2618 6F                  LD    L,A
2619 26 00               LD    H,0
261B             L544:
261B ED 5B 04 50         LD    DE,(05004H)
261F 19                  ADD   HL,DE
2620             L545:
2620 CD 96 21            CALL  writeLineHL
2623             L546:
2623                     ;;test6.j(209)   println(j + b);     // 1010
2623             L547:
2623 2A 04 50            LD    HL,(05004H)
2626             L548:
2626 47                  LD    B,A
2627 3A 00 50            LD    A,(05000H)
262A 5F                  LD    E,A
262B 78                  LD    A,B
262C 16 00               LD    D,0
262E 19                  ADD   HL,DE
262F             L549:
262F CD 96 21            CALL  writeLineHL
2632             L550:
2632                     ;;test6.j(210)   b++;
2632             L551:
2632 2A 00 50            LD    HL,(05000H)
2635 34                  INC   (HL)
2636             L552:
2636                     ;;test6.j(211)   println(b + j);     // 1011
2636             L553:
2636 3A 00 50            LD    A,(05000H)
2639             L554:
2639 6F                  LD    L,A
263A 26 00               LD    H,0
263C             L555:
263C ED 5B 04 50         LD    DE,(05004H)
2640 19                  ADD   HL,DE
2641             L556:
2641 CD 96 21            CALL  writeLineHL
2644             L557:
2644                     ;;test6.j(212)   j = 500;
2644             L558:
2644 21 F4 01            LD    HL,500
2647             L559:
2647 22 04 50            LD    (05004H),HL
264A             L560:
264A                     ;;test6.j(213)   println(j + 512);   // 1012
264A             L561:
264A 2A 04 50            LD    HL,(05004H)
264D             L562:
264D 11 00 02            LD    DE,512
2650 19                  ADD   HL,DE
2651             L563:
2651 CD 96 21            CALL  writeLineHL
2654             L564:
2654                     ;;test6.j(214)   println(513 + j);   // 1013
2654             L565:
2654 21 01 02            LD    HL,513
2657             L566:
2657 ED 5B 04 50         LD    DE,(05004H)
265B 19                  ADD   HL,DE
265C             L567:
265C CD 96 21            CALL  writeLineHL
265F             L568:
265F                     ;;test6.j(215)   println(i + j);     // 1014
265F             L569:
265F 2A 02 50            LD    HL,(05002H)
2662             L570:
2662 ED 5B 04 50         LD    DE,(05004H)
2666 19                  ADD   HL,DE
2667             L571:
2667 CD 96 21            CALL  writeLineHL
266A             L572:
266A                     ;;test6.j(216)   
266A             L573:
266A                     ;;test6.j(217)   j = 1000;
266A             L574:
266A 21 E8 03            LD    HL,1000
266D             L575:
266D 22 04 50            LD    (05004H),HL
2670             L576:
2670                     ;;test6.j(218)   b = 17;
2670             L577:
2670 3E 11               LD    A,17
2672             L578:
2672 32 00 50            LD    (05000H),A
2675             L579:
2675                     ;;test6.j(219)   i = j + 15;
2675             L580:
2675 2A 04 50            LD    HL,(05004H)
2678             L581:
2678 11 0F 00            LD    DE,15
267B 19                  ADD   HL,DE
267C             L582:
267C 22 02 50            LD    (05002H),HL
267F             L583:
267F                     ;;test6.j(220)   println(i);         // 1015
267F             L584:
267F 2A 02 50            LD    HL,(05002H)
2682             L585:
2682 CD 96 21            CALL  writeLineHL
2685             L586:
2685                     ;;test6.j(221)   i = 16 + j;
2685             L587:
2685 3E 10               LD    A,16
2687             L588:
2687 6F                  LD    L,A
2688 26 00               LD    H,0
268A             L589:
268A ED 5B 04 50         LD    DE,(05004H)
268E 19                  ADD   HL,DE
268F             L590:
268F 22 02 50            LD    (05002H),HL
2692             L591:
2692                     ;;test6.j(222)   println(i);         // 1016
2692             L592:
2692 2A 02 50            LD    HL,(05002H)
2695             L593:
2695 CD 96 21            CALL  writeLineHL
2698             L594:
2698                     ;;test6.j(223)   i = j + b;
2698             L595:
2698 2A 04 50            LD    HL,(05004H)
269B             L596:
269B 47                  LD    B,A
269C 3A 00 50            LD    A,(05000H)
269F 5F                  LD    E,A
26A0 78                  LD    A,B
26A1 16 00               LD    D,0
26A3 19                  ADD   HL,DE
26A4             L597:
26A4 22 02 50            LD    (05002H),HL
26A7             L598:
26A7                     ;;test6.j(224)   println(i);         // 1017
26A7             L599:
26A7 2A 02 50            LD    HL,(05002H)
26AA             L600:
26AA CD 96 21            CALL  writeLineHL
26AD             L601:
26AD                     ;;test6.j(225)   b++;
26AD             L602:
26AD 2A 00 50            LD    HL,(05000H)
26B0 34                  INC   (HL)
26B1             L603:
26B1                     ;;test6.j(226)   i = b + j;
26B1             L604:
26B1 3A 00 50            LD    A,(05000H)
26B4             L605:
26B4 6F                  LD    L,A
26B5 26 00               LD    H,0
26B7             L606:
26B7 ED 5B 04 50         LD    DE,(05004H)
26BB 19                  ADD   HL,DE
26BC             L607:
26BC 22 02 50            LD    (05002H),HL
26BF             L608:
26BF                     ;;test6.j(227)   println(i);         // 1018
26BF             L609:
26BF 2A 02 50            LD    HL,(05002H)
26C2             L610:
26C2 CD 96 21            CALL  writeLineHL
26C5             L611:
26C5                     ;;test6.j(228)   j = 500;
26C5             L612:
26C5 21 F4 01            LD    HL,500
26C8             L613:
26C8 22 04 50            LD    (05004H),HL
26CB             L614:
26CB                     ;;test6.j(229)   i = j + 519;
26CB             L615:
26CB 2A 04 50            LD    HL,(05004H)
26CE             L616:
26CE 11 07 02            LD    DE,519
26D1 19                  ADD   HL,DE
26D2             L617:
26D2 22 02 50            LD    (05002H),HL
26D5             L618:
26D5                     ;;test6.j(230)   println(i);         // 1019
26D5             L619:
26D5 2A 02 50            LD    HL,(05002H)
26D8             L620:
26D8 CD 96 21            CALL  writeLineHL
26DB             L621:
26DB                     ;;test6.j(231)   i = 520 + j;
26DB             L622:
26DB 21 08 02            LD    HL,520
26DE             L623:
26DE ED 5B 04 50         LD    DE,(05004H)
26E2 19                  ADD   HL,DE
26E3             L624:
26E3 22 02 50            LD    (05002H),HL
26E6             L625:
26E6                     ;;test6.j(232)   println(i);         // 1020
26E6             L626:
26E6 2A 02 50            LD    HL,(05002H)
26E9             L627:
26E9 CD 96 21            CALL  writeLineHL
26EC             L628:
26EC                     ;;test6.j(233)   i = 521;
26EC             L629:
26EC 21 09 02            LD    HL,521
26EF             L630:
26EF 22 02 50            LD    (05002H),HL
26F2             L631:
26F2                     ;;test6.j(234)   i = i + j;
26F2             L632:
26F2 2A 02 50            LD    HL,(05002H)
26F5             L633:
26F5 ED 5B 04 50         LD    DE,(05004H)
26F9 19                  ADD   HL,DE
26FA             L634:
26FA 22 02 50            LD    (05002H),HL
26FD             L635:
26FD                     ;;test6.j(235)   println(i);         // 1021
26FD             L636:
26FD 2A 02 50            LD    HL,(05002H)
2700             L637:
2700 CD 96 21            CALL  writeLineHL
2703             L638:
2703                     ;;test6.j(236)   
2703             L639:
2703                     ;;test6.j(237)   /*************************/
2703             L640:
2703                     ;;test6.j(238)   /* Dual term subtraction */
2703             L641:
2703                     ;;test6.j(239)   /*************************/
2703             L642:
2703                     ;;test6.j(240)   println(1024 - 2);  // 1022
2703             L643:
2703 21 00 04            LD    HL,1024
2706             L644:
2706 11 02 00            LD    DE,2
2709 B7                  OR    A
270A ED 52               SBC   HL,DE
270C             L645:
270C CD 96 21            CALL  writeLineHL
270F             L646:
270F                     ;;test6.j(241)   println(1523 - 500);// 1023
270F             L647:
270F 21 F3 05            LD    HL,1523
2712             L648:
2712 11 F4 01            LD    DE,500
2715 B7                  OR    A
2716 ED 52               SBC   HL,DE
2718             L649:
2718 CD 96 21            CALL  writeLineHL
271B             L650:
271B                     ;;test6.j(242)   i = 1030 - 6;
271B             L651:
271B 21 06 04            LD    HL,1030
271E             L652:
271E 11 06 00            LD    DE,6
2721 B7                  OR    A
2722 ED 52               SBC   HL,DE
2724             L653:
2724 22 02 50            LD    (05002H),HL
2727             L654:
2727                     ;;test6.j(243)   println(i);         // 1024
2727             L655:
2727 2A 02 50            LD    HL,(05002H)
272A             L656:
272A CD 96 21            CALL  writeLineHL
272D             L657:
272D                     ;;test6.j(244)   i = 1525 - 500;
272D             L658:
272D 21 F5 05            LD    HL,1525
2730             L659:
2730 11 F4 01            LD    DE,500
2733 B7                  OR    A
2734 ED 52               SBC   HL,DE
2736             L660:
2736 22 02 50            LD    (05002H),HL
2739             L661:
2739                     ;;test6.j(245)   println(i);         // 1025
2739             L662:
2739 2A 02 50            LD    HL,(05002H)
273C             L663:
273C CD 96 21            CALL  writeLineHL
273F             L664:
273F                     ;;test6.j(246)   
273F             L665:
273F                     ;;test6.j(247)   j = 1040;
273F             L666:
273F 21 10 04            LD    HL,1040
2742             L667:
2742 22 04 50            LD    (05004H),HL
2745             L668:
2745                     ;;test6.j(248)   b = 13;
2745             L669:
2745 3E 0D               LD    A,13
2747             L670:
2747 32 00 50            LD    (05000H),A
274A             L671:
274A                     ;;test6.j(249)   i = 3030;
274A             L672:
274A 21 D6 0B            LD    HL,3030
274D             L673:
274D 22 02 50            LD    (05002H),HL
2750             L674:
2750                     ;;test6.j(250)   println(j - 14);    // 1026
2750             L675:
2750 2A 04 50            LD    HL,(05004H)
2753             L676:
2753 11 0E 00            LD    DE,14
2756 B7                  OR    A
2757 ED 52               SBC   HL,DE
2759             L677:
2759 CD 96 21            CALL  writeLineHL
275C             L678:
275C                     ;;test6.j(251)   println(j - b);     // 1027
275C             L679:
275C 2A 04 50            LD    HL,(05004H)
275F             L680:
275F 47                  LD    B,A
2760 3A 00 50            LD    A,(05000H)
2763 5F                  LD    E,A
2764 78                  LD    A,B
2765 16 00               LD    D,0
2767 B7                  OR    A
2768 ED 52               SBC   HL,DE
276A             L681:
276A CD 96 21            CALL  writeLineHL
276D             L682:
276D                     ;;test6.j(252)   j = 2000;
276D             L683:
276D 21 D0 07            LD    HL,2000
2770             L684:
2770 22 04 50            LD    (05004H),HL
2773             L685:
2773                     ;;test6.j(253)   println(j - 972);   // 1028
2773             L686:
2773 2A 04 50            LD    HL,(05004H)
2776             L687:
2776 11 CC 03            LD    DE,972
2779 B7                  OR    A
277A ED 52               SBC   HL,DE
277C             L688:
277C CD 96 21            CALL  writeLineHL
277F             L689:
277F                     ;;test6.j(254)   println(3029 - j);  // 1029
277F             L690:
277F 21 D5 0B            LD    HL,3029
2782             L691:
2782 ED 5B 04 50         LD    DE,(05004H)
2786 B7                  OR    A
2787 ED 52               SBC   HL,DE
2789             L692:
2789 CD 96 21            CALL  writeLineHL
278C             L693:
278C                     ;;test6.j(255)   println(i - j);     // 1030
278C             L694:
278C 2A 02 50            LD    HL,(05002H)
278F             L695:
278F ED 5B 04 50         LD    DE,(05004H)
2793 B7                  OR    A
2794 ED 52               SBC   HL,DE
2796             L696:
2796 CD 96 21            CALL  writeLineHL
2799             L697:
2799                     ;;test6.j(256)   
2799             L698:
2799                     ;;test6.j(257)   j = 1050;
2799             L699:
2799 21 1A 04            LD    HL,1050
279C             L700:
279C 22 04 50            LD    (05004H),HL
279F             L701:
279F                     ;;test6.j(258)   b = 18;
279F             L702:
279F 3E 12               LD    A,18
27A1             L703:
27A1 32 00 50            LD    (05000H),A
27A4             L704:
27A4                     ;;test6.j(259)   i = j - 19;
27A4             L705:
27A4 2A 04 50            LD    HL,(05004H)
27A7             L706:
27A7 11 13 00            LD    DE,19
27AA B7                  OR    A
27AB ED 52               SBC   HL,DE
27AD             L707:
27AD 22 02 50            LD    (05002H),HL
27B0             L708:
27B0                     ;;test6.j(260)   println(i);         // 1031
27B0             L709:
27B0 2A 02 50            LD    HL,(05002H)
27B3             L710:
27B3 CD 96 21            CALL  writeLineHL
27B6             L711:
27B6                     ;;test6.j(261)   i = j - b;
27B6             L712:
27B6 2A 04 50            LD    HL,(05004H)
27B9             L713:
27B9 47                  LD    B,A
27BA 3A 00 50            LD    A,(05000H)
27BD 5F                  LD    E,A
27BE 78                  LD    A,B
27BF 16 00               LD    D,0
27C1 B7                  OR    A
27C2 ED 52               SBC   HL,DE
27C4             L714:
27C4 22 02 50            LD    (05002H),HL
27C7             L715:
27C7                     ;;test6.j(262)   println(i);         // 1032
27C7             L716:
27C7 2A 02 50            LD    HL,(05002H)
27CA             L717:
27CA CD 96 21            CALL  writeLineHL
27CD             L718:
27CD                     ;;test6.j(263)   j = 2000;
27CD             L719:
27CD 21 D0 07            LD    HL,2000
27D0             L720:
27D0 22 04 50            LD    (05004H),HL
27D3             L721:
27D3                     ;;test6.j(264)   i = j - 967;
27D3             L722:
27D3 2A 04 50            LD    HL,(05004H)
27D6             L723:
27D6 11 C7 03            LD    DE,967
27D9 B7                  OR    A
27DA ED 52               SBC   HL,DE
27DC             L724:
27DC 22 02 50            LD    (05002H),HL
27DF             L725:
27DF                     ;;test6.j(265)   println(i);         // 1033
27DF             L726:
27DF 2A 02 50            LD    HL,(05002H)
27E2             L727:
27E2 CD 96 21            CALL  writeLineHL
27E5             L728:
27E5                     ;;test6.j(266)   i = 3034 - j;
27E5             L729:
27E5 21 DA 0B            LD    HL,3034
27E8             L730:
27E8 ED 5B 04 50         LD    DE,(05004H)
27EC B7                  OR    A
27ED ED 52               SBC   HL,DE
27EF             L731:
27EF 22 02 50            LD    (05002H),HL
27F2             L732:
27F2                     ;;test6.j(267)   println(i);         // 1034
27F2             L733:
27F2 2A 02 50            LD    HL,(05002H)
27F5             L734:
27F5 CD 96 21            CALL  writeLineHL
27F8             L735:
27F8                     ;;test6.j(268)   i = 3035;
27F8             L736:
27F8 21 DB 0B            LD    HL,3035
27FB             L737:
27FB 22 02 50            LD    (05002H),HL
27FE             L738:
27FE                     ;;test6.j(269)   i = i - j;
27FE             L739:
27FE 2A 02 50            LD    HL,(05002H)
2801             L740:
2801 ED 5B 04 50         LD    DE,(05004H)
2805 B7                  OR    A
2806 ED 52               SBC   HL,DE
2808             L741:
2808 22 02 50            LD    (05002H),HL
280B             L742:
280B                     ;;test6.j(270)   println(i);         // 1035
280B             L743:
280B 2A 02 50            LD    HL,(05002H)
280E             L744:
280E CD 96 21            CALL  writeLineHL
2811             L745:
2811                     ;;test6.j(271)   
2811             L746:
2811                     ;;test6.j(272)   /****************************/
2811             L747:
2811                     ;;test6.j(273)   /* Dual term multiplication */
2811             L748:
2811                     ;;test6.j(274)   /****************************/
2811             L749:
2811                     ;;test6.j(275)   println(518 * 2);   // 1036
2811             L750:
2811 21 06 02            LD    HL,518
2814             L751:
2814 11 02 00            LD    DE,2
2817 CD A7 20            CALL  mul16
281A             L752:
281A CD 96 21            CALL  writeLineHL
281D             L753:
281D                     ;;test6.j(276)   println(1 * 1037);  // 1037
281D             L754:
281D 3E 01               LD    A,1
281F             L755:
281F 6F                  LD    L,A
2820 26 00               LD    H,0
2822             L756:
2822 11 0D 04            LD    DE,1037
2825 CD A7 20            CALL  mul16
2828             L757:
2828 CD 96 21            CALL  writeLineHL
282B             L758:
282B                     ;;test6.j(277)   println(500 * 504 - 54354); // 1038 = 55392 - 54354
282B             L759:
282B 21 F4 01            LD    HL,500
282E             L760:
282E 11 F8 01            LD    DE,504
2831 CD A7 20            CALL  mul16
2834             L761:
2834 11 52 D4            LD    DE,54354
2837 B7                  OR    A
2838 ED 52               SBC   HL,DE
283A             L762:
283A CD 96 21            CALL  writeLineHL
283D             L763:
283D                     ;;test6.j(278) 
283D             L764:
283D                     ;;test6.j(279)   i = 1039 * 1;
283D             L765:
283D 21 0F 04            LD    HL,1039
2840             L766:
2840 11 01 00            LD    DE,1
2843 CD A7 20            CALL  mul16
2846             L767:
2846 22 02 50            LD    (05002H),HL
2849             L768:
2849                     ;;test6.j(280)   println(i);         // 1039
2849             L769:
2849 2A 02 50            LD    HL,(05002H)
284C             L770:
284C CD 96 21            CALL  writeLineHL
284F             L771:
284F                     ;;test6.j(281)   i = 2 * 520;
284F             L772:
284F 3E 02               LD    A,2
2851             L773:
2851 6F                  LD    L,A
2852 26 00               LD    H,0
2854             L774:
2854 11 08 02            LD    DE,520
2857 CD A7 20            CALL  mul16
285A             L775:
285A 22 02 50            LD    (05002H),HL
285D             L776:
285D                     ;;test6.j(282)   println(i);         // 1040
285D             L777:
285D 2A 02 50            LD    HL,(05002H)
2860             L778:
2860 CD 96 21            CALL  writeLineHL
2863             L779:
2863                     ;;test6.j(283) 
2863             L780:
2863                     ;;test6.j(284)   i = 1041;
2863             L781:
2863 21 11 04            LD    HL,1041
2866             L782:
2866 22 02 50            LD    (05002H),HL
2869             L783:
2869                     ;;test6.j(285)   println(i * 1);     // 1041
2869             L784:
2869 2A 02 50            LD    HL,(05002H)
286C             L785:
286C 11 01 00            LD    DE,1
286F CD A7 20            CALL  mul16
2872             L786:
2872 CD 96 21            CALL  writeLineHL
2875             L787:
2875                     ;;test6.j(286)   i = 521;
2875             L788:
2875 21 09 02            LD    HL,521
2878             L789:
2878 22 02 50            LD    (05002H),HL
287B             L790:
287B                     ;;test6.j(287)   println(2 * i);     // 1042
287B             L791:
287B 3E 02               LD    A,2
287D             L792:
287D 6F                  LD    L,A
287E 26 00               LD    H,0
2880             L793:
2880 ED 5B 02 50         LD    DE,(05002H)
2884 CD A7 20            CALL  mul16
2887             L794:
2887 CD 96 21            CALL  writeLineHL
288A             L795:
288A                     ;;test6.j(288) 
288A             L796:
288A                     ;;test6.j(289)   i = 1043;
288A             L797:
288A 21 13 04            LD    HL,1043
288D             L798:
288D 22 02 50            LD    (05002H),HL
2890             L799:
2890                     ;;test6.j(290)   i = i * 1;
2890             L800:
2890 2A 02 50            LD    HL,(05002H)
2893             L801:
2893 11 01 00            LD    DE,1
2896 CD A7 20            CALL  mul16
2899             L802:
2899 22 02 50            LD    (05002H),HL
289C             L803:
289C                     ;;test6.j(291)   println(i);         // 1043
289C             L804:
289C 2A 02 50            LD    HL,(05002H)
289F             L805:
289F CD 96 21            CALL  writeLineHL
28A2             L806:
28A2                     ;;test6.j(292)   i = 522;
28A2             L807:
28A2 21 0A 02            LD    HL,522
28A5             L808:
28A5 22 02 50            LD    (05002H),HL
28A8             L809:
28A8                     ;;test6.j(293)   i = 2 * i;
28A8             L810:
28A8 3E 02               LD    A,2
28AA             L811:
28AA 6F                  LD    L,A
28AB 26 00               LD    H,0
28AD             L812:
28AD ED 5B 02 50         LD    DE,(05002H)
28B1 CD A7 20            CALL  mul16
28B4             L813:
28B4 22 02 50            LD    (05002H),HL
28B7             L814:
28B7                     ;;test6.j(294)   println(i);         // 1044
28B7             L815:
28B7 2A 02 50            LD    HL,(05002H)
28BA             L816:
28BA CD 96 21            CALL  writeLineHL
28BD             L817:
28BD                     ;;test6.j(295) 
28BD             L818:
28BD                     ;;test6.j(296)   i = 500 * 504 - 54347; // 1045 = 55392 - 54347
28BD             L819:
28BD 21 F4 01            LD    HL,500
28C0             L820:
28C0 11 F8 01            LD    DE,504
28C3 CD A7 20            CALL  mul16
28C6             L821:
28C6 11 4B D4            LD    DE,54347
28C9 B7                  OR    A
28CA ED 52               SBC   HL,DE
28CC             L822:
28CC 22 02 50            LD    (05002H),HL
28CF             L823:
28CF                     ;;test6.j(297)   println(i);         // 1045
28CF             L824:
28CF 2A 02 50            LD    HL,(05002H)
28D2             L825:
28D2 CD 96 21            CALL  writeLineHL
28D5             L826:
28D5                     ;;test6.j(298)   i = 500;
28D5             L827:
28D5 21 F4 01            LD    HL,500
28D8             L828:
28D8 22 02 50            LD    (05002H),HL
28DB             L829:
28DB                     ;;test6.j(299)   i = i * 504 - 54346;
28DB             L830:
28DB 2A 02 50            LD    HL,(05002H)
28DE             L831:
28DE 11 F8 01            LD    DE,504
28E1 CD A7 20            CALL  mul16
28E4             L832:
28E4 11 4A D4            LD    DE,54346
28E7 B7                  OR    A
28E8 ED 52               SBC   HL,DE
28EA             L833:
28EA 22 02 50            LD    (05002H),HL
28ED             L834:
28ED                     ;;test6.j(300)   println(i);         // 1046
28ED             L835:
28ED 2A 02 50            LD    HL,(05002H)
28F0             L836:
28F0 CD 96 21            CALL  writeLineHL
28F3             L837:
28F3                     ;;test6.j(301)   i = 504;
28F3             L838:
28F3 21 F8 01            LD    HL,504
28F6             L839:
28F6 22 02 50            LD    (05002H),HL
28F9             L840:
28F9                     ;;test6.j(302)   i = 500 * i - 54345;
28F9             L841:
28F9 21 F4 01            LD    HL,500
28FC             L842:
28FC ED 5B 02 50         LD    DE,(05002H)
2900 CD A7 20            CALL  mul16
2903             L843:
2903 11 49 D4            LD    DE,54345
2906 B7                  OR    A
2907 ED 52               SBC   HL,DE
2909             L844:
2909 22 02 50            LD    (05002H),HL
290C             L845:
290C                     ;;test6.j(303)   println(i);         // 1047
290C             L846:
290C 2A 02 50            LD    HL,(05002H)
290F             L847:
290F CD 96 21            CALL  writeLineHL
2912             L848:
2912                     ;;test6.j(304)   
2912             L849:
2912                     ;;test6.j(305)   /************/
2912             L850:
2912                     ;;test6.j(306)   /* Overflow */
2912             L851:
2912                     ;;test6.j(307)   /************/
2912             L852:
2912                     ;;test6.j(308)   println("Nu komen 24.764 en 25.064");
2912             L853:
2912 21 7F 03            LD    HL,895
2915             L854:
2915 CD 43 20            CALL  writeLineStr
2918             L855:
2918                     ;;test6.j(309)   println(300 * 301); // 90.300 % 65536 = 24.764
2918             L856:
2918 21 2C 01            LD    HL,300
291B             L857:
291B 11 2D 01            LD    DE,301
291E CD A7 20            CALL  mul16
2921             L858:
2921 CD 96 21            CALL  writeLineHL
2924             L859:
2924                     ;;test6.j(310)   i = 300 * 302;
2924             L860:
2924 21 2C 01            LD    HL,300
2927             L861:
2927 11 2E 01            LD    DE,302
292A CD A7 20            CALL  mul16
292D             L862:
292D 22 02 50            LD    (05002H),HL
2930             L863:
2930                     ;;test6.j(311)   println(i);         // 90.600 % 65536 = 25.064
2930             L864:
2930 2A 02 50            LD    HL,(05002H)
2933             L865:
2933 CD 96 21            CALL  writeLineHL
2936             L866:
2936                     ;;test6.j(312) 
2936             L867:
2936                     ;;test6.j(313)   /***************************/
2936             L868:
2936                     ;;test6.j(314)   /* hex noatation constants */
2936             L869:
2936                     ;;test6.j(315)   /***************************/
2936             L870:
2936                     ;;test6.j(316)   println("hex notation constants");
2936             L871:
2936 21 80 03            LD    HL,896
2939             L872:
2939 CD 43 20            CALL  writeLineStr
293C             L873:
293C                     ;;test6.j(317)   byte byteHex = 0x41;
293C             L874:
293C 3E 41               LD    A,65
293E             L875:
293E 32 06 50            LD    (05006H),A
2941             L876:
2941                     ;;test6.j(318)   println(byteHex);
2941             L877:
2941 3A 06 50            LD    A,(05006H)
2944             L878:
2944 CD BE 21            CALL  writeLineA
2947             L879:
2947                     ;;test6.j(319)   word wordHex = 0x042A;
2947             L880:
2947 21 2A 04            LD    HL,1066
294A             L881:
294A 22 07 50            LD    (05007H),HL
294D             L882:
294D                     ;;test6.j(320)   println(wordHex);
294D             L883:
294D 2A 07 50            LD    HL,(05007H)
2950             L884:
2950 CD 96 21            CALL  writeLineHL
2953             L885:
2953                     ;;test6.j(321) 
2953             L886:
2953                     ;;test6.j(322)   println("Klaar");
2953             L887:
2953 21 81 03            LD    HL,897
2956             L888:
2956 CD 43 20            CALL  writeLineStr
2959             L889:
2959                     ;;test6.j(323) }
2959             L890:
2959 C3 71 01            JP    00171H      ;Jump to Zilog Z80183 Monitor.
295C             L891:
295C                     .ASCIZ  "Nu komen 251 en 252"
295C             L892:
295C                     .ASCIZ  "Nu komen -253 en -254"
295C             L893:
295C                     .ASCIZ  "Nu komen 255 en 256"
295C             L894:
295C                     .ASCIZ  "Nu komen 1000..1047"
295C             L895:
295C                     .ASCIZ  "Nu komen 24.764 en 25.064"
295C             L896:
295C                     .ASCIZ  "hex notation constants"
295C             L897:
295C                     .ASCIZ  "Klaar"

Labels and cross references:
      L0 = 21CE :
      L1 = 21CE :
     L10 = 21D3 :
    L100 = 2265 :
    L101 = 2268 :
    L102 = 2268 :
    L103 = 226A :
    L104 = 226D :
    L105 = 226D :
    L106 = 2270 :
    L107 = 2279 :
    L108 = 227C :
    L109 = 227C :
     L11 = 21D3 :
    L110 = 2280 :
    L111 = 2280 :
    L112 = 2283 :
    L113 = 2286 :
    L114 = 228B :
    L115 = 228E :
    L116 = 228E :
    L117 = 228E :
    L118 = 2291 :
    L119 = 2295 :
     L12 = 21D3 :
    L120 = 2298 :
    L121 = 2298 :
    L122 = 229B :
    L123 = 229E :
    L124 = 229E :
    L125 = 22A0 :
    L126 = 22A3 :
    L127 = 22A8 :
    L128 = 22AB :
    L129 = 22AB :
     L13 = 21D3 :
    L130 = 22AE :
    L131 = 22B1 :
    L132 = 22B1 :
    L133 = 22B3 :
    L134 = 22B9 :
    L135 = 22B9 :
    L136 = 22BC :
    L137 = 22C1 :
    L138 = 22C4 :
    L139 = 22C4 :
     L14 = 21D3 :
    L140 = 22C7 :
    L141 = 22CA :
    L142 = 22CA :
    L143 = 22CA :
    L144 = 22CA :
    L145 = 22CA :
    L146 = 22CA :
    L147 = 22CC :
    L148 = 22CF :
    L149 = 22CF :
     L15 = 21D3 :
    L150 = 22D1 :
    L151 = 22D4 :
    L152 = 22D4 :
    L153 = 22D6 :
    L154 = 22D8 :
    L155 = 22DB :
    L156 = 22DB :
    L157 = 22DE :
    L158 = 22E0 :
    L159 = 22E3 :
     L16 = 21D3 :
    L160 = 22E3 :
    L161 = 22E5 :
    L162 = 22EA :
    L163 = 22ED :
    L164 = 22ED :
    L165 = 22F0 :
    L166 = 22F5 :
    L167 = 22F8 :
    L168 = 22F8 :
    L169 = 22F8 :
     L17 = 21D5 :
    L170 = 22FA :
    L171 = 22FC :
    L172 = 22FF :
    L173 = 22FF :
    L174 = 2302 :
    L175 = 2305 :
    L176 = 2305 :
    L177 = 2308 :
    L178 = 230A :
    L179 = 230D :
     L18 = 21D8 :
    L180 = 230D :
    L181 = 2310 :
    L182 = 2313 :
    L183 = 2313 :
    L184 = 2315 :
    L185 = 231A :
    L186 = 231D :
    L187 = 231D :
    L188 = 2320 :
    L189 = 2323 :
     L19 = 21D8 :
    L190 = 2323 :
    L191 = 2325 :
    L192 = 2328 :
    L193 = 2328 :
    L194 = 232B :
    L195 = 2330 :
    L196 = 2333 :
    L197 = 2333 :
    L198 = 2336 :
    L199 = 2339 :
      L2 = 21CE :
     L20 = 21DA :
    L200 = 2339 :
    L201 = 2339 :
    L202 = 233B :
    L203 = 2341 :
    L204 = 2341 :
    L205 = 2344 :
    L206 = 234A :
    L207 = 234D :
    L208 = 234D :
    L209 = 234F :
     L21 = 21DD :
    L210 = 2352 :
    L211 = 2359 :
    L212 = 235C :
    L213 = 235C :
    L214 = 235E :
    L215 = 2361 :
    L216 = 2361 :
    L217 = 2364 :
    L218 = 236F :
    L219 = 2372 :
     L22 = 21DD :
    L220 = 2372 :
    L221 = 2374 :
    L222 = 2377 :
    L223 = 2377 :
    L224 = 237A :
    L225 = 237D :
    L226 = 2384 :
    L227 = 2387 :
    L228 = 2387 :
    L229 = 2387 :
     L23 = 21E0 :
    L230 = 238A :
    L231 = 2390 :
    L232 = 2393 :
    L233 = 2393 :
    L234 = 2396 :
    L235 = 2399 :
    L236 = 2399 :
    L237 = 239B :
    L238 = 239E :
    L239 = 23A5 :
     L24 = 21E3 :
    L240 = 23A8 :
    L241 = 23A8 :
    L242 = 23AB :
    L243 = 23AE :
    L244 = 23AE :
    L245 = 23B0 :
    L246 = 23B6 :
    L247 = 23B6 :
    L248 = 23B9 :
    L249 = 23C0 :
     L25 = 21E3 :
    L250 = 23C3 :
    L251 = 23C3 :
    L252 = 23C6 :
    L253 = 23C9 :
    L254 = 23C9 :
    L255 = 23C9 :
    L256 = 23C9 :
    L257 = 23C9 :
    L258 = 23C9 :
    L259 = 23CB :
     L26 = 21E3 :
    L260 = 23D1 :
    L261 = 23D4 :
    L262 = 23D4 :
    L263 = 23D6 :
    L264 = 23D9 :
    L265 = 23D9 :
    L266 = 23DC :
    L267 = 23E2 :
    L268 = 23E5 :
    L269 = 23E5 :
     L27 = 21E3 :
    L270 = 23E7 :
    L271 = 23EA :
    L272 = 23EA :
    L273 = 23EC :
    L274 = 23F4 :
    L275 = 23F7 :
    L276 = 23F7 :
    L277 = 23F9 :
    L278 = 23FC :
    L279 = 23FC :
     L28 = 21E3 :
    L280 = 23FE :
    L281 = 2401 :
    L282 = 2401 :
    L283 = 2404 :
    L284 = 240C :
    L285 = 240F :
    L286 = 240F :
    L287 = 240F :
    L288 = 2411 :
    L289 = 2417 :
     L29 = 21E3 :
    L290 = 241A :
    L291 = 241A :
    L292 = 241D :
    L293 = 2420 :
    L294 = 2420 :
    L295 = 2422 :
    L296 = 2425 :
    L297 = 2425 :
    L298 = 2428 :
    L299 = 242E :
      L3 = 21CE :
     L30 = 21E3 :
    L300 = 2431 :
    L301 = 2431 :
    L302 = 2434 :
    L303 = 2437 :
    L304 = 2437 :
    L305 = 2439 :
    L306 = 243C :
    L307 = 243C :
    L308 = 243E :
    L309 = 2446 :
     L31 = 21E3 :
    L310 = 2449 :
    L311 = 2449 :
    L312 = 244C :
    L313 = 244F :
    L314 = 244F :
    L315 = 2451 :
    L316 = 2454 :
    L317 = 2454 :
    L318 = 2456 :
    L319 = 2459 :
     L32 = 21E3 :
    L320 = 2459 :
    L321 = 245C :
    L322 = 2464 :
    L323 = 2467 :
    L324 = 2467 :
    L325 = 246A :
    L326 = 246D :
    L327 = 246D :
    L328 = 246D :
    L329 = 246D :
     L33 = 21E3 :
    L330 = 246D :
    L331 = 246D :
    L332 = 246F :
    L333 = 2474 :
    L334 = 2477 :
    L335 = 2477 :
    L336 = 2479 :
    L337 = 247C :
    L338 = 247C :
    L339 = 247F :
     L34 = 21E3 :
    L340 = 2484 :
    L341 = 2487 :
    L342 = 2487 :
    L343 = 2489 :
    L344 = 248C :
    L345 = 248C :
    L346 = 248E :
    L347 = 2497 :
    L348 = 249A :
    L349 = 249A :
     L35 = 21E5 :
    L350 = 249C :
    L351 = 249F :
    L352 = 249F :
    L353 = 24A1 :
    L354 = 24A4 :
    L355 = 24A4 :
    L356 = 24A7 :
    L357 = 24B0 :
    L358 = 24B3 :
    L359 = 24B3 :
     L36 = 21E7 :
    L360 = 24B3 :
    L361 = 24B5 :
    L362 = 24BA :
    L363 = 24BD :
    L364 = 24BD :
    L365 = 24C0 :
    L366 = 24C3 :
    L367 = 24C3 :
    L368 = 24C5 :
    L369 = 24C8 :
     L37 = 21EA :
    L370 = 24C8 :
    L371 = 24CB :
    L372 = 24D0 :
    L373 = 24D3 :
    L374 = 24D3 :
    L375 = 24D6 :
    L376 = 24D9 :
    L377 = 24D9 :
    L378 = 24DB :
    L379 = 24DE :
     L38 = 21EA :
    L380 = 24DE :
    L381 = 24E0 :
    L382 = 24E9 :
    L383 = 24EC :
    L384 = 24EC :
    L385 = 24EF :
    L386 = 24F2 :
    L387 = 24F2 :
    L388 = 24F4 :
    L389 = 24F7 :
     L39 = 21ED :
    L390 = 24F7 :
    L391 = 24F9 :
    L392 = 24FC :
    L393 = 24FC :
    L394 = 24FF :
    L395 = 2508 :
    L396 = 250B :
    L397 = 250B :
    L398 = 250E :
    L399 = 2511 :
      L4 = 21CE :
     L40 = 21EF :
    L400 = 2511 :
    L401 = 2511 :
    L402 = 2511 :
    L403 = 2511 :
    L404 = 2511 :
    L405 = 2514 :
    L406 = 2517 :
    L407 = 2517 :
    L408 = 251A :
    L409 = 251E :
     L41 = 21F2 :
    L410 = 251E :
    L411 = 2521 :
    L412 = 2524 :
    L413 = 2524 :
    L414 = 2527 :
    L415 = 252A :
    L416 = 252A :
    L417 = 252D :
    L418 = 2531 :
    L419 = 2531 :
     L42 = 21F2 :
    L420 = 2534 :
    L421 = 2537 :
    L422 = 2537 :
    L423 = 2537 :
    L424 = 253A :
    L425 = 253D :
    L426 = 253D :
    L427 = 2540 :
    L428 = 2543 :
    L429 = 2549 :
     L43 = 21F4 :
    L430 = 254D :
    L431 = 254D :
    L432 = 2550 :
    L433 = 2553 :
    L434 = 2553 :
    L435 = 2556 :
    L436 = 255A :
    L437 = 255D :
    L438 = 255D :
    L439 = 2560 :
     L44 = 21F9 :
    L440 = 2563 :
    L441 = 256A :
    L442 = 256E :
    L443 = 256E :
    L444 = 2571 :
    L445 = 2574 :
    L446 = 2574 :
    L447 = 2574 :
    L448 = 2577 :
    L449 = 257A :
     L45 = 21FC :
    L450 = 257A :
    L451 = 257C :
    L452 = 257F :
    L453 = 257F :
    L454 = 2582 :
    L455 = 2585 :
    L456 = 2585 :
    L457 = 2585 :
    L458 = 2585 :
    L459 = 2585 :
     L46 = 21FC :
    L460 = 2585 :
    L461 = 2585 :
    L462 = 2585 :
    L463 = 2585 :
    L464 = 2585 :
    L465 = 2585 :
    L466 = 2588 :
    L467 = 258B :
    L468 = 258B :
    L469 = 258E :
     L47 = 21FF :
    L470 = 2591 :
    L471 = 2591 :
    L472 = 2591 :
    L473 = 2591 :
    L474 = 2591 :
    L475 = 2591 :
    L476 = 2591 :
    L477 = 2591 :
    L478 = 2594 :
    L479 = 2597 :
     L48 = 2204 :
    L480 = 2597 :
    L481 = 259A :
    L482 = 259D :
    L483 = 259D :
    L484 = 25A0 :
    L485 = 25A3 :
    L486 = 25A3 :
    L487 = 25A6 :
    L488 = 25A9 :
    L489 = 25A9 :
     L49 = 2207 :
    L490 = 25A9 :
    L491 = 25A9 :
    L492 = 25A9 :
    L493 = 25A9 :
    L494 = 25AC :
    L495 = 25B0 :
    L496 = 25B3 :
    L497 = 25B3 :
    L498 = 25B5 :
    L499 = 25B8 :
      L5 = 21CE :
     L50 = 2207 :
    L500 = 25BC :
    L501 = 25BF :
    L502 = 25BF :
    L503 = 25C2 :
    L504 = 25C6 :
    L505 = 25C9 :
    L506 = 25C9 :
    L507 = 25CC :
    L508 = 25D0 :
    L509 = 25D3 :
     L51 = 2207 :
    L510 = 25D3 :
    L511 = 25D6 :
    L512 = 25D9 :
    L513 = 25D9 :
    L514 = 25DB :
    L515 = 25DE :
    L516 = 25E2 :
    L517 = 25E5 :
    L518 = 25E5 :
    L519 = 25E8 :
     L52 = 2209 :
    L520 = 25EB :
    L521 = 25EB :
    L522 = 25EE :
    L523 = 25F2 :
    L524 = 25F5 :
    L525 = 25F5 :
    L526 = 25F8 :
    L527 = 25FB :
    L528 = 25FB :
    L529 = 25FB :
     L53 = 220B :
    L530 = 25FE :
    L531 = 2601 :
    L532 = 2601 :
    L533 = 2603 :
    L534 = 2606 :
    L535 = 2606 :
    L536 = 2609 :
    L537 = 260C :
    L538 = 260C :
    L539 = 260F :
     L54 = 220E :
    L540 = 2613 :
    L541 = 2616 :
    L542 = 2616 :
    L543 = 2618 :
    L544 = 261B :
    L545 = 2620 :
    L546 = 2623 :
    L547 = 2623 :
    L548 = 2626 :
    L549 = 262F :
     L55 = 220E :
    L550 = 2632 :
    L551 = 2632 :
    L552 = 2636 :
    L553 = 2636 :
    L554 = 2639 :
    L555 = 263C :
    L556 = 2641 :
    L557 = 2644 :
    L558 = 2644 :
    L559 = 2647 :
     L56 = 2211 :
    L560 = 264A :
    L561 = 264A :
    L562 = 264D :
    L563 = 2651 :
    L564 = 2654 :
    L565 = 2654 :
    L566 = 2657 :
    L567 = 265C :
    L568 = 265F :
    L569 = 265F :
     L57 = 2214 :
    L570 = 2662 :
    L571 = 2667 :
    L572 = 266A :
    L573 = 266A :
    L574 = 266A :
    L575 = 266D :
    L576 = 2670 :
    L577 = 2670 :
    L578 = 2672 :
    L579 = 2675 :
     L58 = 2214 :
    L580 = 2675 :
    L581 = 2678 :
    L582 = 267C :
    L583 = 267F :
    L584 = 267F :
    L585 = 2682 :
    L586 = 2685 :
    L587 = 2685 :
    L588 = 2687 :
    L589 = 268A :
     L59 = 2217 :
    L590 = 268F :
    L591 = 2692 :
    L592 = 2692 :
    L593 = 2695 :
    L594 = 2698 :
    L595 = 2698 :
    L596 = 269B :
    L597 = 26A4 :
    L598 = 26A7 :
    L599 = 26A7 :
      L6 = 21CE :
     L60 = 2219 :
    L600 = 26AA :
    L601 = 26AD :
    L602 = 26AD :
    L603 = 26B1 :
    L604 = 26B1 :
    L605 = 26B4 :
    L606 = 26B7 :
    L607 = 26BC :
    L608 = 26BF :
    L609 = 26BF :
     L61 = 221C :
    L610 = 26C2 :
    L611 = 26C5 :
    L612 = 26C5 :
    L613 = 26C8 :
    L614 = 26CB :
    L615 = 26CB :
    L616 = 26CE :
    L617 = 26D2 :
    L618 = 26D5 :
    L619 = 26D5 :
     L62 = 221C :
    L620 = 26D8 :
    L621 = 26DB :
    L622 = 26DB :
    L623 = 26DE :
    L624 = 26E3 :
    L625 = 26E6 :
    L626 = 26E6 :
    L627 = 26E9 :
    L628 = 26EC :
    L629 = 26EC :
     L63 = 221F :
    L630 = 26EF :
    L631 = 26F2 :
    L632 = 26F2 :
    L633 = 26F5 :
    L634 = 26FA :
    L635 = 26FD :
    L636 = 26FD :
    L637 = 2700 :
    L638 = 2703 :
    L639 = 2703 :
     L64 = 2222 :
    L640 = 2703 :
    L641 = 2703 :
    L642 = 2703 :
    L643 = 2703 :
    L644 = 2706 :
    L645 = 270C :
    L646 = 270F :
    L647 = 270F :
    L648 = 2712 :
    L649 = 2718 :
     L65 = 2222 :
    L650 = 271B :
    L651 = 271B :
    L652 = 271E :
    L653 = 2724 :
    L654 = 2727 :
    L655 = 2727 :
    L656 = 272A :
    L657 = 272D :
    L658 = 272D :
    L659 = 2730 :
     L66 = 2224 :
    L660 = 2736 :
    L661 = 2739 :
    L662 = 2739 :
    L663 = 273C :
    L664 = 273F :
    L665 = 273F :
    L666 = 273F :
    L667 = 2742 :
    L668 = 2745 :
    L669 = 2745 :
     L67 = 2229 :
    L670 = 2747 :
    L671 = 274A :
    L672 = 274A :
    L673 = 274D :
    L674 = 2750 :
    L675 = 2750 :
    L676 = 2753 :
    L677 = 2759 :
    L678 = 275C :
    L679 = 275C :
     L68 = 222C :
    L680 = 275F :
    L681 = 276A :
    L682 = 276D :
    L683 = 276D :
    L684 = 2770 :
    L685 = 2773 :
    L686 = 2773 :
    L687 = 2776 :
    L688 = 277C :
    L689 = 277F :
     L69 = 222C :
    L690 = 277F :
    L691 = 2782 :
    L692 = 2789 :
    L693 = 278C :
    L694 = 278C :
    L695 = 278F :
    L696 = 2796 :
    L697 = 2799 :
    L698 = 2799 :
    L699 = 2799 :
      L7 = 21D0 :
     L70 = 222F :
    L700 = 279C :
    L701 = 279F :
    L702 = 279F :
    L703 = 27A1 :
    L704 = 27A4 :
    L705 = 27A4 :
    L706 = 27A7 :
    L707 = 27AD :
    L708 = 27B0 :
    L709 = 27B0 :
     L71 = 2232 :
    L710 = 27B3 :
    L711 = 27B6 :
    L712 = 27B6 :
    L713 = 27B9 :
    L714 = 27C4 :
    L715 = 27C7 :
    L716 = 27C7 :
    L717 = 27CA :
    L718 = 27CD :
    L719 = 27CD :
     L72 = 2232 :
    L720 = 27D0 :
    L721 = 27D3 :
    L722 = 27D3 :
    L723 = 27D6 :
    L724 = 27DC :
    L725 = 27DF :
    L726 = 27DF :
    L727 = 27E2 :
    L728 = 27E5 :
    L729 = 27E5 :
     L73 = 2235 :
    L730 = 27E8 :
    L731 = 27EF :
    L732 = 27F2 :
    L733 = 27F2 :
    L734 = 27F5 :
    L735 = 27F8 :
    L736 = 27F8 :
    L737 = 27FB :
    L738 = 27FE :
    L739 = 27FE :
     L74 = 223A :
    L740 = 2801 :
    L741 = 2808 :
    L742 = 280B :
    L743 = 280B :
    L744 = 280E :
    L745 = 2811 :
    L746 = 2811 :
    L747 = 2811 :
    L748 = 2811 :
    L749 = 2811 :
     L75 = 223D :
    L750 = 2811 :
    L751 = 2814 :
    L752 = 281A :
    L753 = 281D :
    L754 = 281D :
    L755 = 281F :
    L756 = 2822 :
    L757 = 2828 :
    L758 = 282B :
    L759 = 282B :
     L76 = 223D :
    L760 = 282E :
    L761 = 2834 :
    L762 = 283A :
    L763 = 283D :
    L764 = 283D :
    L765 = 283D :
    L766 = 2840 :
    L767 = 2846 :
    L768 = 2849 :
    L769 = 2849 :
     L77 = 2240 :
    L770 = 284C :
    L771 = 284F :
    L772 = 284F :
    L773 = 2851 :
    L774 = 2854 :
    L775 = 285A :
    L776 = 285D :
    L777 = 285D :
    L778 = 2860 :
    L779 = 2863 :
     L78 = 2243 :
    L780 = 2863 :
    L781 = 2863 :
    L782 = 2866 :
    L783 = 2869 :
    L784 = 2869 :
    L785 = 286C :
    L786 = 2872 :
    L787 = 2875 :
    L788 = 2875 :
    L789 = 2878 :
     L79 = 2243 :
    L790 = 287B :
    L791 = 287B :
    L792 = 287D :
    L793 = 2880 :
    L794 = 2887 :
    L795 = 288A :
    L796 = 288A :
    L797 = 288A :
    L798 = 288D :
    L799 = 2890 :
      L8 = 21D3 :
     L80 = 2243 :
    L800 = 2890 :
    L801 = 2893 :
    L802 = 2899 :
    L803 = 289C :
    L804 = 289C :
    L805 = 289F :
    L806 = 28A2 :
    L807 = 28A2 :
    L808 = 28A5 :
    L809 = 28A8 :
     L81 = 2243 :
    L810 = 28A8 :
    L811 = 28AA :
    L812 = 28AD :
    L813 = 28B4 :
    L814 = 28B7 :
    L815 = 28B7 :
    L816 = 28BA :
    L817 = 28BD :
    L818 = 28BD :
    L819 = 28BD :
     L82 = 2245 :
    L820 = 28C0 :
    L821 = 28C6 :
    L822 = 28CC :
    L823 = 28CF :
    L824 = 28CF :
    L825 = 28D2 :
    L826 = 28D5 :
    L827 = 28D5 :
    L828 = 28D8 :
    L829 = 28DB :
     L83 = 224B :
    L830 = 28DB :
    L831 = 28DE :
    L832 = 28E4 :
    L833 = 28EA :
    L834 = 28ED :
    L835 = 28ED :
    L836 = 28F0 :
    L837 = 28F3 :
    L838 = 28F3 :
    L839 = 28F6 :
     L84 = 224B :
    L840 = 28F9 :
    L841 = 28F9 :
    L842 = 28FC :
    L843 = 2903 :
    L844 = 2909 :
    L845 = 290C :
    L846 = 290C :
    L847 = 290F :
    L848 = 2912 :
    L849 = 2912 :
     L85 = 224E :
    L850 = 2912 :
    L851 = 2912 :
    L852 = 2912 :
    L853 = 2912 :
    L854 = 2915 :
    L855 = 2918 :
    L856 = 2918 :
    L857 = 291B :
    L858 = 2921 :
    L859 = 2924 :
     L86 = 2251 :
    L860 = 2924 :
    L861 = 2927 :
    L862 = 292D :
    L863 = 2930 :
    L864 = 2930 :
    L865 = 2933 :
    L866 = 2936 :
    L867 = 2936 :
    L868 = 2936 :
    L869 = 2936 :
     L87 = 2251 :
    L870 = 2936 :
    L871 = 2936 :
    L872 = 2939 :
    L873 = 293C :
    L874 = 293C :
    L875 = 293E :
    L876 = 2941 :
    L877 = 2941 :
    L878 = 2944 :
    L879 = 2947 :
     L88 = 2251 :
    L880 = 2947 :
    L881 = 294A :
    L882 = 294D :
    L883 = 294D :
    L884 = 2950 :
    L885 = 2953 :
    L886 = 2953 :
    L887 = 2953 :
    L888 = 2956 :
    L889 = 2959 :
     L89 = 2251 :
    L890 = 2959 :
    L891 = 295C :
    L892 = 295C :
    L893 = 295C :
    L894 = 295C :
    L895 = 295C :
    L896 = 295C :
    L897 = 295C :
      L9 = 21D3 :
     L90 = 2251 :
     L91 = 2251 :
     L92 = 2251 :
     L93 = 2251 :
     L94 = 2254 :
     L95 = 2258 :
     L96 = 225B :
     L97 = 225B :
     L98 = 225D :
     L99 = 2260 :
  WAIT1M = 2018 : 2007 2011
 WAIT1M2 = 201D : 2020
   div16 = 2123 :
 div16_1 = 212C : 213B
 div16_2 = 213A : 2135
 div16_3 = 213B : 2138
 div16_8 = 2143 : 21AA
div16_82 = 2148 : 2150
div16_83 = 2150 : 214C
    div8 = 2154 : 2177 2471 2481 2494 24AD 24B7 24CD 24E6 2505
  div8_1 = 215C : 2167
 div8_16 = 216E :
div8_161 = 2175 : 2171
  div8_2 = 2167 : 2163
 getChar = 2025 : 217F
getChar1 = 2033 : 202A
    main = 21CE : 2003
   mul16 = 20A7 : 2817 2825 2831 2843 2857 286F 2884 2896 28B1 28C3 28E1 2900
                : 291E 292A
 mul1632 = 20D6 :
mul16321 = 20F8 : 20F5
mul16322 = 20FF : 20FC
  mul16S = 2109 :
 mul16S1 = 2112 : 211E
 mul16S2 = 211D : 2117 211A
mul16_10 = 20C0 : 2188
 mul16_8 = 20C9 :
 putBell = 207F :
 putCRLF = 2066 : 2046 2199 21C1
 putChar = 2059 : 2050 2069 206E 2075 207D 2081 20A2 21B6
putChar1 = 205A : 205F
putErase = 2073 :
 putHexA = 208E : 2085 2089
putHexA1 = 2097 : 2093
putHexA2 = 20A2 : 209E
putHexHL = 2083 :
  putMsg = 203D :
putSpace = 2057 : 2078
 putStr1 = 204B : 2053
 putStr2 = 2055 : 204E
    read = 217B :
   read1 = 217F : 2182 218F 2192
   read2 = 2194 : 2186
  sleep1 = 2007 : 200D 2015
  sleepA = 2011 :
 sleepHL = 2006 :
   start = 2000 :
  writeA = 21C5 : 21BE
 writeHL = 219D : 2196 21C9
writeHL1 = 21A8 : 21A3 21B1
writeHL2 = 21B3 : 21B9
writeHL3 = 21B4 : 21A6
writeLineA = 21BE : 21D0 21E0 21E7 21EF 21F9 2204 2211 221F 222F 2240 22D8 22E0
                : 22EA 22F5 2302 2310 2320 2336 23D1 23E2 23F4 240C 241D 2434
                : 244C 246A 2474 2484 2497 24B0 24C0 24D6 24EF 250E 2521 2534
                : 2550 2571 2582 2944
writeLineHL = 2196 : 224E 2258 2265 2279 228B 229B 22AE 22C7 234A 2359 236F 2384
                : 2396 23AB 23C6 258E 259A 25A6 25B0 25BC 25C6 25D6 25E8 25F8
                : 2613 2620 262F 2641 2651 265C 2667 2682 2695 26AA 26C2 26D8
                : 26E9 2700 270C 2718 272A 273C 2759 276A 277C 2789 2796 27B3
                : 27CA 27E2 27F5 280E 281A 2828 283A 284C 2860 2872 2887 289F
                : 28BA 28D2 28F0 290F 2921 2933 2950
writeLineStr = 2043 : 2514 253A 2577 2594 2915 2939 2956
writeStr = 204A : 203E 2043
