2000             TOS     equ 0FD00H        ;User stack grows before user global data.
2000             CNTLA0  equ 000H          ;144 ASCI0 Control Register A.
2000             STAT0   equ 004H          ;147 ASCI0 Status register.
2000             TDR0    equ 006H          ;148 ASCI0 Transmit Data Register.
2000             RDR0    equ 008H          ;149 ASCI0 Receive Data Register.
2000             ERROR   equ 3             ;CNTLA0->OVRN,FE,PE,BRK error flags.
2000             TDRE    equ 1             ;STAT0->Tx data register empty bit.
2000             OVERRUN equ 6             ;STAT0->OVERRUN bit.
2000             RDRF    equ 7             ;STAT0->Rx data register full bit.
2000                     .ORG  02000H      ;lowest external RAM address.
2000             start:
2000 31 00 FD            LD    SP,TOS
2003 C3 CE 21            JP    main
2006             ;****************
2006             ;sleepHL - Wait HL * 1 msec @ 18,432 MHz with no wait states
2006             ;  IN:  HL number of msec to wait
2006             ;  OUT: none
2006             ;  USES: 4 bytes on stack
2006             ;****************
2006             sleepHL:
2006 F5                  PUSH  AF
2007             sleep1:
2007 CD 18 20            CALL  WAIT1M      ;Wait 1 msec
200A 2B                  DEC   HL
200B 7C                  LD    A,H
200C B5                  OR    L
200D 20 F8               JR    NZ,sleep1
200F F1                  POP   AF
2010 C9                  RET
2011             ;****************
2011             ;sleepA - Wait A * 1 msec @ 18,432 MHz with no wait states
2011             ;  IN:  A number of msec to wait
2011             ;  OUT: none
2011             ;  USES: no stack
2011             ;****************
2011             sleepA:
2011 CD 18 20            CALL  WAIT1M      ;Wait 1 msec
2014 3D                  DEC   A
2015 20 F0               JR    NZ,sleepA
2017 C9                  RET
2018             ;****************
2018             ;WAIT1M
2018             ;wait 1 msec at 18,432 MHz with no wait states
2018             ;The routine requires 56+n*22 states, so that with n=834
2018             ;28  clock cycles remain left.
2018             ;****************
2018             WAIT1M:
2018 E5                  PUSH  HL          ;5      11 (11)
2019                                       ;       3 opcode
2019                                       ;       3 mem write
2019                                       ;       1 inc SP
2019                                       ;       3 mem write
2019                                       ;       1 inc SP
2019 F5                  PUSH  AF          ;5      11 (22)
201A                                       ;       3 opcode
201A                                       ;       3 mem write
201A                                       ;       1 inc SP
201A                                       ;       3 mem write
201A                                       ;       1 inc SP
201A 21 42 03            LD    HL, 834     ;3      9 (31)
201D                                       ;       3 opcode
201D                                       ;       3 mem read
201D                                       ;       3 mem read
201D             WAIT1M2:
201D 2B                  DEC   HL          ;2      4 (31+n*4)
201E                                       ;       3 opcode
201E                                       ;       1 execute
201E 7C                  LD    A,H         ;2      6 (31+n*10)
201F                                       ;       3 opcode
201F                                       ;       3 execute
201F B5                  OR    L           ;2      4 (31+n*14)
2020                                       ;       3 opcode
2020                                       ;       1 execute
2020 20 FB               JR    NZ,WAIT1M2  ;4      8 (31+n*22) if NZ
2022                                       ;       3 opcode
2022                                       ;       3 mem read
2022                                       ;       1 execute
2022                                       ;       1 execute
2022                                       ;2      6 (29+n*22) if not NZ
2022                                       ;       3 opcode
2022                                       ;       3 mem read
2022 F1                  POP   AF          ;3      9 (38+n*22)
2023                                       ;       3 opcode
2023                                       ;       3 mem read
2023                                       ;       3 mem read
2023 E1                  POP   HL          ;3      9 (47+n*22)
2024                                       ;       3 opcode
2024                                       ;       3 mem read
2024                                       ;       3 mem read
2024 C9                  RET               ;3      9 (56+n*22)
2025                                       ;       3 opcode
2025                                       ;       3 mem read
2025                                       ;       3 mem read
2025             ;****************
2025             ;getChar
2025             ;Check if an input character from ASCI0 is available.
2025             ;  IN:  none
2025             ;  OUT: F: ZERO flag set if no character is available.
2025             ;          ZERO flag reset if a character is available.
2025             ;       A : character from ASCI0, if available.
2025             ;  USES:AF
2025             ;****************
2025             getChar:
2025 ED 38 04            IN0   A,(STAT0)   ;read ASCI0 status
2028 CB 77               BIT   OVERRUN,A   ;check if ASCIO OVERRUN bit is set
202A 20 07               JR    NZ,getChar1 ;-yes: reset error flags
202C CB 7F               BIT   RDRF,A      ;check if ASCIO RDRF bit is set
202E C8                  RET   Z           ;-no: return without a character
202F ED 38 08            IN0   A,(RDR0)    ;-yes:read ASCIO Rx data register
2032 C9                  RET
2033             getChar1:
2033 ED 38 00            IN0   A,(CNTLA0)  ;read ASCI0 control register
2036 CB 9F               RES   ERROR,A     ;reset OVRN,FE,PE,BRK flags
2038 ED 39 00            OUT0  (CNTLA0),A  ;write back to ASCI0 CTRL
203B AF                  XOR   A
203C C9                  RET               ;return without a character
203D             ;****************
203D             ;putMsg
203D             ;Print via ASCI0 a zero terminated string, starting at the return address on the stack.
203D             ;  IN:  none.
203D             ;  OUT: none.
203D             ;  USES:none.
203D             ;****************
203D             putMsg:
203D E3                  EX    (SP),HL     ;save HL and load return address into HL.
203E CD 4A 20            CALL  writeStr
2041 E3                  EX    (SP),HL     ;put return address onto stack and restore HL.
2042 C9                  RET
2043             ;****************
2043             ;writeLineStr
2043             ;Print via ASCI0 a zero terminated string, pointed to by HL, followed by a carriage return.
2043             ;  IN:  HL:address of zero terminated string to be printed.
2043             ;  OUT: none.
2043             ;  USES:HL (point to byte after zero terminated string)
2043             ;****************
2043             writeLineStr:
2043 CD 4A 20            CALL  writeStr
2046 CD 66 20            CALL  putCRLF
2049 C9                  RET
204A             ;****************
204A             ;writeStr
204A             ;Print via ASCI0 a zero terminated string, pointed to by HL.
204A             ;  IN:  HL:address of zero terminated string to be printed.
204A             ;  OUT: none.
204A             ;  USES:HL (point to byte after zero terminated string)
204A             ;****************
204A             writeStr:
204A F5                  PUSH  AF          ;save registers
204B             putStr1:
204B 7E                  LD    A,(HL)      ;get next character
204C 23                  INC   HL
204D B7                  OR    A,A         ;is it zer0?
204E 28 05               JR    Z,putStr2   ;yes ->return
2050 CD 59 20            CALL  putChar     ;no->put it to ASCI0
2053 18 F6               JR    putStr1
2055             putStr2:
2055 F1                  POP   AF
2056 C9                  RET
2057             ;****************
2057             ;putSpace
2057             ;Send a space character to ASCI0
2057             ;  IN:  none.
2057             ;  OUT: none.
2057             ;  USES:AF
2057             ;****************
2057             putSpace:
2057 3E 20               LD    A,' '       ;load space and continue with putChar.
2059             ;****************
2059             ;putChar
2059             ;Send one character to ASCI0.
2059             ;  IN:  A = character
2059             ;  OUT: none.
2059             ;  USES:none.
2059             ;****************
2059             putChar:
2059 F5                  PUSH  AF          ;send the character via ASCI0
205A             putChar1:
205A ED 38 04            IN0   A,(STAT0)   ;read ASCI0 status register
205D CB 4F               BIT   TDRE,A      ;wait until TDRE <> 0
205F 28 F9               JR    Z,putChar1
2061 F1                  POP   AF          ;restore AF registers
2062 ED 39 06            OUT0  (TDR0),A    ;write character to ASCI0
2065 C9                  RET
2066             ;****************
2066             ;putCRLF
2066             ;Send CR and LF to ASCI0
2066             ;  IN:  none.
2066             ;  OUT: none.
2066             ;  USES:none.
2066             ;****************
2066             putCRLF:
2066 F5                  PUSH  AF
2067 3E 0D               LD    A,'\r'       ;print carriage return
2069 CD 59 20            CALL  putChar
206C 3E 0A               LD    A,'\n'       ;print line feed
206E CD 59 20            CALL  putChar
2071 F1                  POP   AF
2072 C9                  RET
2073             ;****************
2073             ;putErase
2073             ;Erase the latest character at ASCI0
2073             ;  IN:  none.
2073             ;  OUT: none.
2073             ;  USES:AF
2073             ;****************
2073             putErase:
2073 3E 08               LD    A,'\b'       ;print backspace
2075 CD 59 20            CALL  putChar
2078 CD 57 20            CALL  putSpace    ;print space (erase character)
207B 3E 08               LD    A,'\b'      ;print backspace
207D 18 DA               JR    putChar
207F             ;****************
207F             ;putBell
207F             ;Send a Bell character to ASCI0
207F             ;  IN:  none.
207F             ;  OUT: none.
207F             ;  USES:AF
207F             ;****************
207F             putBell:
207F 3E 07               LD    A,07        ;ring the bell at ASCI0
2081 18 D6               JR    putChar
2083             ;****************
2083             ;putHexHL
2083             ;Print HL register pair as 4 hex digits
2083             ;  IN:  HL = word to be printed.
2083             ;  OUT: none.
2083             ;  USES:none.
2083             ;****************
2083             putHexHL:
2083 F5                  PUSH  AF          ;save used registers
2084 7C                  LD    A,H         ;print H as 2 hex digits
2085 CD 8E 20            CALL  putHexA
2088 7D                  LD    A,L         ;print L as 2 hex digits
2089 CD 8E 20            CALL  putHexA
208C F1                  POP   AF          ;restore used registers
208D C9                  RET
208E             ;****************
208E             ;putHexA
208E             ;Print A register as 2 hex digits
208E             ;  IN:  A = byte to be printed
208E             ;  OUT: none.
208E             ;  USES:none.
208E             ;****************
208E             putHexA:
208E F5                  PUSH  AF          ;save input
208F 1F                  RRA               ;shift upper nibble to the right
2090 1F                  RRA
2091 1F                  RRA
2092 1F                  RRA
2093 CD 97 20            CALL  putHexA1    ;print upper nibble
2096 F1                  POP   AF          ;restore input & print lower nibble
2097             putHexA1:
2097 F5                  PUSH  AF          ;save input
2098 E6 0F               AND   A,00FH      ;mask lower nibble
209A C6 30               ADD   A,'0'       ;convert to hex digit
209C FE 3A               CP    A,'9'+1
209E 38 02               JR    C,putHexA2
20A0 C6 07               ADD   A,07
20A2             putHexA2:
20A2 CD 59 20            CALL  putChar
20A5 F1                  POP   AF          ;restore input
20A6 C9                  RET               ;and return
20A7             ;****************
20A7             ;mul16
20A7             ;16 by 16 bit unsigned multiplication with 16 bit result.
20A7             ;  IN:  HL = operand 1
20A7             ;       DE = operand 2
20A7             ;  OUT: HL = HL * DE low part
20A7             ;  USES:DE
20A7             ;  Size   25 bytes
20A7             ;  Time  160 cycles
20A7             ;****************
20A7             mul16:
20A7                     ;HL = HL * DE
20A7                     ;        H  L
20A7                     ;        D  E
20A7                     ;    --------*
20A7                     ;          EL
20A7                     ;       EH  0
20A7                     ;       DL  0
20A7                     ; -----------+
20A7                     ;        R  S
20A7                     ;S = ELlow
20A7                     ;R = ELhigh+EHlow+DLlow
20A7 C5                  PUSH  BC          ;11  11 save BC
20A8 44                  LD    B,H         ; 4  15 copy HL to BC
20A9 4D                  LD    C,L         ; 4  19
20AA 63                  LD    H,E         ; 4  23 HL contains EL
20AB ED 6C               MLT   HL          ;17  40
20AD E5                  PUSH  HL          ;11  51
20AE 63                  LD    H,E         ; 4  55 HL contains EH aka EB
20AF 68                  LD    L,B         ; 4  59
20B0 ED 6C               MLT   HL          ;17  76
20B2 45                  LD    B,L         ; 4  80 save EHlow in B
20B3 62                  LD    H,D         ; 4  84 HL contains DL aka DC
20B4 69                  LD    L,C         ; 4  88
20B5 ED 6C               MLT   HL          ;17 105
20B7 55                  LD    D,L         ; 4 109 DLlow into DE
20B8 1E 00               LD    E,0         ; 6 115
20BA E1                  POP   HL          ; 9 124 add EL+DElow
20BB 19                  ADD   HL,DE       ; 7 131
20BC 50                  LD    D,B         ; 4 135 add EL+DElow+EHlow
20BD 19                  ADD   HL,DE       ; 7 142
20BE C1                  POP   BC          ; 9 151 restore BC
20BF C9                  RET               ; 9 160
20C0             ;****************
20C0             ;mul16_10
20C0             ;multiply a 16 bit unsigned number by 10 with a 16 bit result.
20C0             ;  IN:  HL = operand
20C0             ;  OUT: HL = HL * 10; low part
20C0             ;  USES:Flags
20C0             ;  Size   9 bytes
20C0             ;  Time   65 cycles
20C0             ;****************
20C0             mul16_10:
20C0 D5                  PUSH  DE          ;11 11
20C1 54                  LD    D,H         ; 4 15
20C2 5D                  LD    E,L         ; 4 19
20C3 29                  ADD   HL,HL       ; 7 26 times 2
20C4 29                  ADD   HL,HL       ; 7 33 times 4
20C5 19                  ADD   HL,DE       ; 7 40 times 5
20C6 29                  ADD   HL,HL       ; 7 47 times 10
20C7 D1                  POP   DE          ; 9 56
20C8 C9                  RET               ; 9 65
20C9             ;****************
20C9             ;mul16_8
20C9             ;16 by 8 bit unsigned multiplication with 16 bit result.
20C9             ;  IN:  HL = operand 1
20C9             ;        A = operand 2
20C9             ;  OUT: HL = HL * A low part
20C9             ;  USES:AF
20C9             ;  Size   .. bytes
20C9             ;  Time  ... cycles
20C9             ;****************
20C9             mul16_8:
20C9                     ;HL = HL * A
20C9                     ;        H  L
20C9                     ;           A
20C9                     ;    --------*
20C9                     ;          AL
20C9                     ;       AH  0
20C9                     ; -----------+
20C9                     ;        R  S
20C9                     ;S = ALlow
20C9                     ;R = ALhigh+AHlow
20C9 C5                  PUSH  BC          ;11  11 save BC
20CA 44                  LD    B,H         ; 4  15
20CB 47                  LD    C,A         ; 4  19
20CC 67                  LD    H,A         ; 4  23
20CD ED 6C               MLT   HL          ;17  40 HL = AL
20CF ED 4C               MLT   BC          ;17  57 BC = AH
20D1 7C                  LD    A,H         ; 4  61 A = S = ALhigh+AHlow
20D2 81                  ADD   A,C         ; 4  65
20D3 67                  LD    H,A         ; 4  69
20D4 C1                  POP   BC          ; 9  78 | 289 restore BC
20D5 C9                  RET               ; 9  87 | 307
20D6             ;****************
20D6             ;mul1632
20D6             ;16 by 16 bit unsigned multiplication with 32 bit result.
20D6             ;  IN:  HL = operand 1
20D6             ;       DE = operand 2
20D6             ;  OUT: HL = HL * DE low part
20D6             ;       DE = HL * DE high part
20D6             ;  USES:-
20D6             ;  Size 49 bytes
20D6             ;  Time between 303 en 307 cycles
20D6             ;****************
20D6             mul1632:
20D6                     ;HL = HL * DE
20D6                     ;        H  L
20D6                     ;        D  E
20D6                     ;    --------*
20D6                     ;          EL
20D6                     ;       EH  0
20D6                     ;       DL  0
20D6                     ;    DH  0  0
20D6                     ; -----------+
20D6                     ;  P  Q  R  S
20D6                     ;S = ELlow
20D6                     ;R = ELhigh+EHlow+DLlow
20D6                     ;Q = DHlow+EHhigh+DLhigh
20D6                     ;P = DHhigh
20D6 F5                  PUSH  AF          ;11  11 save AF
20D7 C5                  PUSH  BC          ;11  22 save BC
20D8 44                  LD    B,H         ; 4  26
20D9 4D                  LD    C,L         ; 4  30
20DA 62                  LD    H,D         ; 4  34 HL contains DH aka DB
20DB 68                  LD    L,B         ; 4  38
20DC ED 6C               MLT   HL          ;17  55
20DE E5                  PUSH  HL          ;11  66
20DF 62                  LD    H,D         ; 4  70 HL contains DL aka DC
20E0 69                  LD    L,C         ; 4  74
20E1 ED 6C               MLT   HL          ;17  91
20E3 E5                  PUSH  HL          ;11 102
20E4 63                  LD    H,E         ; 4 106 HL contains EH aka EB
20E5 68                  LD    L,B         ; 4 110
20E6 ED 6C               MLT   HL          ;17 127
20E8 E5                  PUSH  HL          ;11 138
20E9 63                  LD    H,E         ; 4 142 HL contains EL aka EC
20EA 69                  LD    L,C         ; 4 146
20EB ED 6C               MLT   HL          ;17 163
20ED D1                  POP   DE          ; 9 172 calculate RS=EL+EH0
20EE 06 00               LD    B,0         ; 6 178
20F0 4A                  LD    C,D         ; 4 182 ..C=EHhigh
20F1 53                  LD    D,E         ; 4 186 ..D=EHlow
20F2 1E 00               LD    E,0         ; 6 192
20F4 19                  ADD   HL,DE       ; 7 199
20F5 30 01               JR    NC,mul16321 ; 8 207 | 6 205 add carry to PQ
20F7 03                  INC   BC          ;         4 209
20F8             mul16321:
20F8 D1                  POP   DE          ; 9 209 | 211 calculate RS=EL+EH0+DL0
20F9 7A                  LD    A,D         ; 4 220 | 222 ..A=DLhigh
20FA 53                  LD    D,E         ; 4 224 | 226 ..D=DLlow
20FB 19                  ADD   HL,DE       ; 7 231 | 233
20FC 30 01               JR    NC,mul16322 ; 8 239 | 6 239 add carry to PQ
20FE 03                  INC   BC          ;         4 243
20FF             mul16322:
20FF                                       ;HL=RS=EL+EH0+DL0
20FF                                       ;C=EHhigh
20FF                                       ;A=DLhigh
20FF                                       ;E=0
20FF EB                  EX    DE,HL       ; 3 242 | 246
2100 65                  LD    H,L         ; 4 246 | 250 ..E was 0, so H=L=0
2101 6F                  LD    L,A         ; 4 250 | 254 ..HL=DLhigh
2102 09                  ADD   HL,BC       ; 7 257 | 261 PQ=EHhigh+DLhigh+DH
2103 C1                  POP   BC          ; 9 266 | 270
2104 09                  ADD   HL,BC       ; 7 273 | 277
2105 EB                  EX    DE,HL       ; 3 276 | 280
2106                                       ;D=P=DHhigh
2106                                       ;E=Q=DHlow+EHhigh+DLhigh
2106                                       ;H=R=ELhigh+EHlow+DLlow
2106                                       ;L=S=ELlow
2106 C1                  POP   BC          ; 9 285 | 289 restore BC
2107 F1                  POP   AF          ; 9 294 | 298 restore AF
2108 C9                  RET               ; 9 303 | 307
2109             ;****************
2109             ;mul16S
2109             ;16 by 16 bit slow unsigned multiplication with 32 bit result.
2109             ;  IN:  HL = operand 1
2109             ;       DE = operand 2
2109             ;  OUT: DE = HL * DE high part
2109             ;       HL = HL * DE low part
2109             ;  USES:none.
2109             ;  Size 26 bytes
2109             ;  Time between 726 en 998 cycles
2109             ;****************
2109             mul16S:
2109 F5                  PUSH  AF          ;11  11 save AF
210A C5                  PUSH  BC          ;11  22 save BC
210B 44                  LD    B,H         ; 4  26
210C 4D                  LD    C,L         ; 4  30
210D 21 00 00            LD    HL,0        ; 9  39
2110 3E 10               LD    A,16        ; 6  45
2112             mul16S1:
2112 29                  ADD   HL,HL       ;16*7=112 157
2113 CB 13               RL    E           ;16*7=112 269
2115 CB 12               RL    D           ;16*7=112 381
2117 30 04               JR    NC,mul16S2  ;16*8=128 509 16*6= 96 477
2119 09                  ADD   HL,BC       ;             16*7=112 589
211A 30 01               JR    NC,mul16S2  ;             16*8=128 717 16*6=96 685
211C 13                  INC   DE          ;             16*4= 64 781 16*4=64 749 This instruction (with the jump) is like an "ADC DE,0"
211D             mul16S2:
211D 3D                  DEC   A           ;16*4=64    573 | 845 | 813
211E 20 F2               JR    NZ,mul16S1  ;15*8+6=126 699 | 971 | 939
2120 C1                  POP   BC          ; 9         708 | 980 | 948 restore BC
2121 F1                  POP   AF          ; 9         717 | 989 | 957 restore AF
2122 C9                  RET               ; 9         726 | 998 | 966
2123             ;****************
2123             ;div16
2123             ;16 by 16 bit unsigned division.
2123             ;  IN:  HL = dividend
2123             ;       DE = divisor
2123             ;  OUT: HL = quotient
2123             ;       DE = remainder
2123             ;  USES:-
2123             ;  Size   32 bytes
2123             ;  Time   between 1073 en 1121 cycles
2123             ;pseudo code:
2123             ;T = AC = dividend
2123             ;D = DE = divisor
2123             ;Q = AC = quotient = 0
2123             ;R = HL = remainder = 0
2123             ;invariante betrekking:
2123             ; D/T\Q     
2123             ;   R       
2123             ; T = QD + R
2123             ; T <= 2^N  
2123             ;
2123             ; D/T'.RT\Q'      
2123             ;   R'             
2123             ; RT <= 2^N        
2123             ; 0<=k<=N          
2123             ; RT = T % 2^k     
2123             ; T' = (T-RT) / 2^k
2123             ; Q' = T' / D      
2123             ; R' = T' % D      
2123             ;
2123             ;for (i=16; i>0; i--) {
2123             ;  T = T * 2 (remember MSB in carry)
2123             ;  R = R * 2 + carry
2123             ;  Q = Q * 2
2123             ;  if (R >= D) {
2123             ;    R = R - D;
2123             ;    Q++;
2123             ;  }
2123             ;}
2123             ;return Q (in HL) and R (in DE)
2123             ;****************
2123             div16:
2123 F5                  PUSH  AF          ;11  11 save registers used
2124 C5                  PUSH  BC          ;11  22
2125 4D                  LD    C,L         ; 4  26 T(AC) = teller from input (HL)
2126 7C                  LD    A,H         ; 4  30 D(DE) = deler from input  (DE)
2127 21 00 00            LD    HL,0        ; 9  39 R(HL) = restant; Q(AC) = quotient
212A 06 10               LD    B,16        ; 6  45 for (i=16; i>0; i--)
212C             div16_1:
212C CB 21               SLA   C           ;16* 7=112 157   T = T * 2 (remember MSB in carry)
212E CB 17               RL    A           ;16* 7=112 269   Q = Q * 2
2130 ED 6A               ADC   HL,HL       ;16*10=160 429   R = R * 2 + carry
2132 B7                  OR    A           ;16* 4= 64 493   if (R >= D) {
2133 ED 52               SBC   HL,DE       ;16*10=160 653
2135 38 03               JR    C,div16_2   ;16* 8=128 781 16*6= 96 749   R = R - D
2137 0C                  INC   C           ;              16*4= 64 813   Q++
2138 18 01               JR    div16_3     ;              16*8=128 941
213A             div16_2:
213A 19                  ADD   HL,DE       ;16* 7=112 893  (compensate comparison)
213B             div16_3:
213B 10 EF               DJNZ  div16_1     ;15*9+7=142 1035 | 1083 }
213D EB                  EX    DE,HL       ; 3 1038 | 1086 swap remainder (HL) into DE
213E 67                  LD    H,A         ; 4 1042 | 1090 move quotient (AC) into HL
213F 69                  LD    L,C         ; 4 1046 | 1094
2140 C1                  POP   BC          ; 9 1055 | 1103
2141 F1                  POP   AF          ; 9 1064 | 1112
2142 C9                  RET               ; 9 1073 | 1121
2143             ;****************
2143             ;div16_8
2143             ;16 by 8 bit unsigned division.
2143             ;  IN:  HL = dividend
2143             ;       A  = divisor
2143             ;  OUT: HL = quotient
2143             ;       A  = remainder
2143             ;  USES:F(lags)
2143             ;  Size 18 bytes
2143             ;  Time between 601 en 697 cycles
2143             ;****************
2143             div16_8:
2143 C5                  PUSH  BC          ;11 11 save registers used
2144 06 10               LD    B,16        ; 6 17 the length of the dividend (16 bits)
2146 4F                  LD    C,A         ; 4 21 move divisor to C
2147 AF                  XOR   A           ; 4 25 clear upper 8 bits of AHL
2148             div16_82:
2148 29                  ADD   HL,HL       ;16*7=112 137 advance dividend (HL) into selected bits (A)
2149 CB 17               RL    A           ;16*7=112 249
214B B9                  CP    C           ;16*4= 64 313 check if divisor (E) <= selected digits (A)
214C 38 02               JR    C,div16_83  ;16*8=128 441 16*6=96 409 if not, advance without subtraction
214E 91                  SUB   C           ;             16*4=64 473 subtract the divisor
214F 2C                  INC   L           ;             16*4=64 537 and set the next digit of the quotient
2150             div16_83:
2150 10 F6               DJNZ  div16_82    ;15*9+7=142 583 679
2152 C1                  POP   BC          ;9 592 688
2153 C9                  RET               ;9 601 697
2154             ;****************
2154             ;div8
2154             ;8 by 8 bit unsigned division.
2154             ;  IN:  A = dividend
2154             ;       C = divisor
2154             ;  OUT: A = quotient
2154             ;       C = remainder
2154             ;  USES:F(lags)
2154             ;  Size 26 bytes
2154             ;  Time between 411 and 459 cycles
2154             ;****************
2154             ;pseudo code:
2154             ;T = dividend
2154             ;D = divisor
2154             ;Q = quotient = 0
2154             ;R = remainder = 0
2154             ;invariante betrekking:
2154             ; T = QD + R
2154             ; T <= 2^8  
2154             ;
2154             ; D/T'.RT\Q'      
2154             ;   R'             
2154             ; RT <= 2^8        
2154             ; 0<=k<=8          
2154             ; RT = T % 2^k     
2154             ; T' = (T-RT) / 2^k
2154             ; Q' = T' / D      
2154             ; R' = T' % D      
2154             ;
2154             ;for (i=8; i>0; i--) {
2154             ;  T = T * 2 (remember MSB in carry)
2154             ;  R = R * 2 + carry
2154             ;  Q = Q * 2
2154             ;  if (R >= D) {
2154             ;    R = R - D;
2154             ;    Q++;
2154             ;  }
2154             ;}
2154             ;return Q (in A) and R (in C)
2154             ;****************
2154             ;E = T = dividend
2154             ;C = D = divisor
2154             ;D = Q = quotient
2154             ;A = R = remainder
2154             ;****************
2154             ;  IN:  A = dividend
2154             ;       C  = divisor
2154             div8:
2154 D5                  PUSH  DE          ;11 11 save registers used
2155 C5                  PUSH  BC          ;11 22 save registers used
2156 06 08               LD    B,8         ; 6 28 the length of the dividend (8 bits)
2158 16 00               LD    D,0         ; 6 34 D = Q = quotient = 0
215A 5F                  LD    E,A         ; 4 38 E = T = dividend
215B AF                  XOR   A           ; 4 42 A = R = remainder = 0
215C             div8_1:
215C CB 23               SLA   E           ;8*7=56  98            T[E] = T[E] * 2 (remember MSB in carry)
215E CB 17               RL    A           ;8*7=56 154            R[A] = R[A] * 2 + carry
2160 CB 22               SLA   D           ;8*7=56 210            Q[D] = Q[D] * 2
2162 B9                  CP    C           ;8*4=32 242            if (R[A] - D[C] >= 0) {
2163 38 02               JR    C,div8_2    ;8*8=64 306 8*6=48 290
2165 91                  SUB   C           ;           8*4=32 322   R[A] = R[A] - D[C];
2166 14                  INC   D           ;           8*4=32 354   Q[D]++;
2167             div8_2:           ;                      }
2167 10 F3               DJNZ  div8_1      ;7*9+7=70 376 424      }
2169 C1                  POP   BC          ;9        385 433
216A 4F                  LD    C,A         ;4        389 437      return Remainder[A] in C
216B 7A                  LD    A,D         ;4        393 441      return Quotient[D] in A
216C D1                  POP   DE          ;9        402 450
216D C9                  RET               ;9        411 459
216E             ;****************
216E             ;div8_16
216E             ;8 by 16 bit unsigned division.
216E             ;  IN:  A = dividend
216E             ;       HL = divisor
216E             ;  OUT: A = quotient
216E             ;       C = remainder
216E             ;  USES:F(lags)
216E             ;  Size 13 bytes (plus dependency on div8)
216E             ;  Time 31 or between 436 and 484 cycles
216E             ;****************
216E             ;invariante betrekking:
216E             ; T = dividend
216E             ; D = divisor
216E             ; Q = quotient
216E             ; R = remainder
216E             ; T = QD + R
216E             ;pseudo code:
216E             ; if D >= 256 {
216E             ;   R = T
216E             ;   Q = 0
216E             ; } else {
216E             ;   R = T/D (using div8)
216E             ;   Q = T%D (using div8)
216E             ; }
216E             ;****************
216E             
216E             
216E             div8_16:
216E 4F                  LD    C,A         ;  4  4         save dividend(A) in C
216F 7C                  LD    A,H         ;  4  8         if D >= 256 {
2170 B7                  OR    A           ;  4 12
2171 28 02               JR    Z,div8_161  ;  6 18  8  20
2173 AF                  XOR   A           ;  4 22           R = T;
2174 C9                  RET               ;  9 31           Q = 0;
2175             div8_161:                     ;               } else {
2175 79                  LD    A,C         ;        4  24    restore dividend into A
2176 4D                  LD    C,L         ;        4  28    load divisor (HL) into C
2177 CD 54 21            CALL  div8        ; 16+411/16+459               R = T/D; Q = T%D;
217A C9                  RET               ; 9  436/484    }
217B             ;****************
217B             ;read
217B             ;read a 16 bit unsigned number from the input
217B             ;  IN:  none
217B             ;  OUT: HL = 16 bit unsigned number
217B             ;  USES:-
217B             ;****************
217B             read:
217B F5                  PUSH  AF
217C 21 00 00            LD    HL,0        ;result = 0;
217F             read1:
217F CD 25 20            CALL  getChar     ;check if a character is available.
2182 28 FB               JR    Z,read1     ;-no: wait for it.
2184 FE 0D               CP    '\r'        ;return if char == Carriage Return
2186 28 0C               JR    Z,read2
2188 CD C0 20            CALL  mul16_10    ;result *= 10;
218B D6 30               SUB   A,'0'       ;digit = char - '0';
218D 85                  ADD   A,L         ;result += digit;
218E 6F                  LD    L,A
218F 30 EE               JR    NC,read1     ;get next character
2191 24                  INC   H
2192 18 EB               JR    read1        ;get next character
2194             read2:
2194 F1                  POP   AF
2195 C9                  RET
2196             ;****************
2196             ;writeLineHL
2196             ;write a 16 bit unsigned number to the output, followed by a carriage return
2196             ;  IN:  HL = 16 bit unsigned number
2196             ;  OUT: none
2196             ;  USES:HL
2196             ;****************
2196             writeLineHL:
2196 CD 9D 21            CALL  writeHL
2199 CD 66 20            CALL  putCRLF
219C C9                  RET
219D             ;****************
219D             ;writeHL
219D             ;write a 16 bit unsigned number to the output
219D             ;  IN:  HL = 16 bit unsigned number
219D             ;  OUT: none
219D             ;  USES:HL
219D             ;****************
219D             writeHL:
219D C5                  PUSH  BC          ;save registers used
219E F5                  PUSH  AF
219F 06 00               LD    B,0         ;number of digits on stack
21A1 7C                  LD    A,H         ;is HL=0?
21A2 B5                  OR    L
21A3 20 03               JR    NZ,writeHL1
21A5 04                  INC   B           ;write a single digit 0
21A6 18 0C               JR    writeHL3
21A8             writeHL1:
21A8 3E 0A               LD    A,10        ;divide HL by 10
21AA CD 43 21            CALL  div16_8
21AD F5                  PUSH  AF          ;put remainder on stack
21AE 04                  INC   B
21AF 7C                  LD    A,H         ;is quotient 0?
21B0 B5                  OR    L
21B1 20 F5               JR    NZ,writeHL1
21B3             writeHL2:
21B3 F1                  POP   AF          ;write digit
21B4             writeHL3:
21B4 C6 30               ADD   A,'0'
21B6 CD 59 20            CALL  putChar
21B9 10 F8               DJNZ  writeHL2
21BB F1                  POP   AF          ;restore registers used
21BC C1                  POP   BC
21BD C9                  RET
21BE             ;****************
21BE             ;writeLineA
21BE             ;write an 8-bit unsigned number to the output, followed by a carriage return
21BE             ;  IN:  A = 8-bit unsigned number
21BE             ;  OUT: none
21BE             ;  USES:none
21BE             ;****************
21BE             writeLineA:
21BE CD C5 21            CALL  writeA
21C1 CD 66 20            CALL  putCRLF
21C4 C9                  RET
21C5             ;****************
21C5             ;writeA
21C5             ;write an 8-bit unsigned number to the output
21C5             ;  IN:  A = 8-bit unsigned number
21C5             ;  OUT: none
21C5             ;  USES:none
21C5             ;****************
21C5             writeA:
21C5 E5                  PUSH  HL          ;save registers used
21C6 26 00               LD    H,0
21C8 6F                  LD    L,A
21C9 CD 9D 21            CALL  writeHL
21CC E1                  POP   HL
21CD C9                  RET
21CE             main:
21CE             L0:
21CE                     ;;test15.j(0) /* Program to test bitwise operators and, or and xor. */
21CE             L1:
21CE                     ;;test15.j(1) class TestBitwiseOperators {
21CE             L2:
21CE                     ;;test15.j(2)   println(0);
21CE             L3:
21CE 3E 00               LD    A,0
21D0             L4:
21D0 CD BE 21            CALL  writeLineA
21D3             L5:
21D3                     ;;test15.j(3)   
21D3             L6:
21D3                     ;;test15.j(4)   // Possible operand types: constant, acc, var, final var, stack8, stack16.
21D3             L7:
21D3                     ;;test15.j(5)   // Possible data types: byt, word.
21D3             L8:
21D3                     ;;test15.j(6) 
21D3             L9:
21D3                     ;;test15.j(7)   byte b1 = 0x1C;
21D3             L10:
21D3 3E 1C               LD    A,28
21D5             L11:
21D5 32 00 50            LD    (05000H),A
21D8             L12:
21D8                     ;;test15.j(8)   byte b2 = 0x07;
21D8             L13:
21D8 3E 07               LD    A,7
21DA             L14:
21DA 32 01 50            LD    (05001H),A
21DD             L15:
21DD                     ;;test15.j(9)   word w1 = 0x032C;
21DD             L16:
21DD 21 2C 03            LD    HL,812
21E0             L17:
21E0 22 02 50            LD    (05002H),HL
21E3             L18:
21E3                     ;;test15.j(10)   word w2 = 0x1234;
21E3             L19:
21E3 21 34 12            LD    HL,4660
21E6             L20:
21E6 22 04 50            LD    (05004H),HL
21E9             L21:
21E9                     ;;test15.j(11)   final byte fb1 = 0x1C;
21E9             L22:
21E9                     ;;test15.j(12)   final byte fb2 = 0x07;
21E9             L23:
21E9                     ;;test15.j(13)   final word fw1 = 0x032C;
21E9             L24:
21E9                     ;;test15.j(14)   final word fw2 = 0x1234;
21E9             L25:
21E9                     ;;test15.j(15) 
21E9             L26:
21E9                     ;;test15.j(16)   //constant/constant
21E9             L27:
21E9                     ;;test15.j(17)   //*****************
21E9             L28:
21E9                     ;;test15.j(18)   //constant byte/constant byte
21E9             L29:
21E9                     ;;test15.j(19)   if (0x07 & 0x1C == 0x04) println (1); else println (999); //0000.0111 & 0001.1100 = 0000.0100
21E9             L30:
21E9 3E 07               LD    A,7
21EB             L31:
21EB E6 1C               AND   A,28
21ED             L32:
21ED D6 04               SUB   A,4
21EF             L33:
21EF C2 FA 21            JP    NZ,L37
21F2             L34:
21F2 3E 01               LD    A,1
21F4             L35:
21F4 CD BE 21            CALL  writeLineA
21F7             L36:
21F7 C3 00 22            JP    L40
21FA             L37:
21FA 21 E7 03            LD    HL,999
21FD             L38:
21FD CD 96 21            CALL  writeLineHL
2200             L39:
2200                     ;;test15.j(20)   if (0x07 | 0x1C == 0x1F) println (2); else println (999); //0000.0111 | 0001.1100 = 0001.1111
2200             L40:
2200 3E 07               LD    A,7
2202             L41:
2202 F6 1C               OR    A,28
2204             L42:
2204 D6 1F               SUB   A,31
2206             L43:
2206 C2 11 22            JP    NZ,L47
2209             L44:
2209 3E 02               LD    A,2
220B             L45:
220B CD BE 21            CALL  writeLineA
220E             L46:
220E C3 17 22            JP    L50
2211             L47:
2211 21 E7 03            LD    HL,999
2214             L48:
2214 CD 96 21            CALL  writeLineHL
2217             L49:
2217                     ;;test15.j(21)   if (0x07 ^ 0x1C == 0x1B) println (3); else println (999); //0000.0111 ^ 0001.1100 = 0001.1011
2217             L50:
2217 3E 07               LD    A,7
2219             L51:
2219 EE 1C               XOR   A,28
221B             L52:
221B D6 1B               SUB   A,27
221D             L53:
221D C2 28 22            JP    NZ,L57
2220             L54:
2220 3E 03               LD    A,3
2222             L55:
2222 CD BE 21            CALL  writeLineA
2225             L56:
2225 C3 2E 22            JP    L61
2228             L57:
2228 21 E7 03            LD    HL,999
222B             L58:
222B CD 96 21            CALL  writeLineHL
222E             L59:
222E                     ;;test15.j(22)   //constant word/constant word
222E             L60:
222E                     ;;test15.j(23)   if (0x1234 & 0x032C == 0x0224) println (4); else println (999);
222E             L61:
222E 21 34 12            LD    HL,4660
2231             L62:
2231 11 2C 03            LD    DE,812
2234 C5                  PUSH  BC
2235 47                  LD    B,A
2236 7C                  LD    A,H
2237 A2                  AND   A,D
2238 67                  LD    H,A
2239 7D                  LD    A,L
223A A3                  AND   A,E
223B 6F                  LD    L,A
223C 78                  LD    A,B
223D C1                  POP   BC
223E             L63:
223E 11 24 02            LD    DE,548
2241 B7                  OR    A
2242 ED 52               SBC   HL,DE
2244             L64:
2244 C2 4F 22            JP    NZ,L68
2247             L65:
2247 3E 04               LD    A,4
2249             L66:
2249 CD BE 21            CALL  writeLineA
224C             L67:
224C C3 55 22            JP    L72
224F             L68:
224F 21 E7 03            LD    HL,999
2252             L69:
2252 CD 96 21            CALL  writeLineHL
2255             L70:
2255                     ;;test15.j(24)   //0001.0010.0011.0100 & 0000.0011.0010.1100 = 0000.0010.0010.0100
2255             L71:
2255                     ;;test15.j(25)   if (0x1234 | 0x032C == 0x133C) println (5); else println (999);
2255             L72:
2255 21 34 12            LD    HL,4660
2258             L73:
2258 11 2C 03            LD    DE,812
225B C5                  PUSH  BC
225C 47                  LD    B,A
225D 7C                  LD    A,H
225E B2                  OR    A,D
225F 67                  LD    H,A
2260 7D                  LD    A,L
2261 B3                  OR    A,E
2262 6F                  LD    L,A
2263 78                  LD    A,B
2264 C1                  POP   BC
2265             L74:
2265 11 3C 13            LD    DE,4924
2268 B7                  OR    A
2269 ED 52               SBC   HL,DE
226B             L75:
226B C2 76 22            JP    NZ,L79
226E             L76:
226E 3E 05               LD    A,5
2270             L77:
2270 CD BE 21            CALL  writeLineA
2273             L78:
2273 C3 7C 22            JP    L83
2276             L79:
2276 21 E7 03            LD    HL,999
2279             L80:
2279 CD 96 21            CALL  writeLineHL
227C             L81:
227C                     ;;test15.j(26)   //0001.0010.0011.0100 | 0000.0011.0010.1100 = 0001.0011.0011.1100
227C             L82:
227C                     ;;test15.j(27)   if (0x1234 ^ 0x032C == 0x1118) println (6); else println (999);
227C             L83:
227C 21 34 12            LD    HL,4660
227F             L84:
227F 11 2C 03            LD    DE,812
2282 C5                  PUSH  BC
2283 47                  LD    B,A
2284 7C                  LD    A,H
2285 AA                  XOR   A,D
2286 67                  LD    H,A
2287 7D                  LD    A,L
2288 AB                  XOR   A,E
2289 6F                  LD    L,A
228A 78                  LD    A,B
228B C1                  POP   BC
228C             L85:
228C 11 18 11            LD    DE,4376
228F B7                  OR    A
2290 ED 52               SBC   HL,DE
2292             L86:
2292 C2 9D 22            JP    NZ,L90
2295             L87:
2295 3E 06               LD    A,6
2297             L88:
2297 CD BE 21            CALL  writeLineA
229A             L89:
229A C3 A3 22            JP    L95
229D             L90:
229D 21 E7 03            LD    HL,999
22A0             L91:
22A0 CD 96 21            CALL  writeLineHL
22A3             L92:
22A3                     ;;test15.j(28)   //0001.0010.0011.0100 ^ 0000.0011.0010.1100 = 0001.0001.0001.1000
22A3             L93:
22A3                     ;;test15.j(29)   //constant byt/constant word
22A3             L94:
22A3                     ;;test15.j(30)   if (0x1C & 0x1234 == 0x0014) println (7); else println (999); //0001.1100 & 0001.0010.0011.0100 = 0000.0000.0001.0100
22A3             L95:
22A3 3E 1C               LD    A,28
22A5             L96:
22A5 6F                  LD    L,A
22A6 26 00               LD    H,0
22A8             L97:
22A8 11 34 12            LD    DE,4660
22AB C5                  PUSH  BC
22AC 47                  LD    B,A
22AD 7C                  LD    A,H
22AE A2                  AND   A,D
22AF 67                  LD    H,A
22B0 7D                  LD    A,L
22B1 A3                  AND   A,E
22B2 6F                  LD    L,A
22B3 78                  LD    A,B
22B4 C1                  POP   BC
22B5             L98:
22B5 3E 14               LD    A,20
22B7             L99:
22B7 5F                  LD    E,A
22B8 16 00               LD    D,0
22BA EB                  EX    DE,HL
22BB B7                  OR    A
22BC ED 52               SBC   HL,DE
22BE             L100:
22BE C2 C9 22            JP    NZ,L104
22C1             L101:
22C1 3E 07               LD    A,7
22C3             L102:
22C3 CD BE 21            CALL  writeLineA
22C6             L103:
22C6 C3 CF 22            JP    L107
22C9             L104:
22C9 21 E7 03            LD    HL,999
22CC             L105:
22CC CD 96 21            CALL  writeLineHL
22CF             L106:
22CF                     ;;test15.j(31)   if (0x1C | 0x1234 == 0x123C) println (8); else println (999); //0001.1100 | 0001.0010.0011.0100 = 0001.0010.0011.1100
22CF             L107:
22CF 3E 1C               LD    A,28
22D1             L108:
22D1 6F                  LD    L,A
22D2 26 00               LD    H,0
22D4             L109:
22D4 11 34 12            LD    DE,4660
22D7 C5                  PUSH  BC
22D8 47                  LD    B,A
22D9 7C                  LD    A,H
22DA B2                  OR    A,D
22DB 67                  LD    H,A
22DC 7D                  LD    A,L
22DD B3                  OR    A,E
22DE 6F                  LD    L,A
22DF 78                  LD    A,B
22E0 C1                  POP   BC
22E1             L110:
22E1 11 3C 12            LD    DE,4668
22E4 B7                  OR    A
22E5 ED 52               SBC   HL,DE
22E7             L111:
22E7 C2 F2 22            JP    NZ,L115
22EA             L112:
22EA 3E 08               LD    A,8
22EC             L113:
22EC CD BE 21            CALL  writeLineA
22EF             L114:
22EF C3 F8 22            JP    L118
22F2             L115:
22F2 21 E7 03            LD    HL,999
22F5             L116:
22F5 CD 96 21            CALL  writeLineHL
22F8             L117:
22F8                     ;;test15.j(32)   if (0x1C ^ 0x1234 == 0x1228) println (9); else println (999); //0001.1100 ^ 0001.0010.0011.0100 = 0001.0010.0010.1000
22F8             L118:
22F8 3E 1C               LD    A,28
22FA             L119:
22FA 6F                  LD    L,A
22FB 26 00               LD    H,0
22FD             L120:
22FD 11 34 12            LD    DE,4660
2300 C5                  PUSH  BC
2301 47                  LD    B,A
2302 7C                  LD    A,H
2303 AA                  XOR   A,D
2304 67                  LD    H,A
2305 7D                  LD    A,L
2306 AB                  XOR   A,E
2307 6F                  LD    L,A
2308 78                  LD    A,B
2309 C1                  POP   BC
230A             L121:
230A 11 28 12            LD    DE,4648
230D B7                  OR    A
230E ED 52               SBC   HL,DE
2310             L122:
2310 C2 1B 23            JP    NZ,L126
2313             L123:
2313 3E 09               LD    A,9
2315             L124:
2315 CD BE 21            CALL  writeLineA
2318             L125:
2318 C3 21 23            JP    L130
231B             L126:
231B 21 E7 03            LD    HL,999
231E             L127:
231E CD 96 21            CALL  writeLineHL
2321             L128:
2321                     ;;test15.j(33)   //constant word/constant byt
2321             L129:
2321                     ;;test15.j(34)   if (0x1234 & 0x1C == 0x0014) println (10); else println (999); //0001.0010.0011.0100 & 0001.1100 = 0000.0000.0001.0100
2321             L130:
2321 21 34 12            LD    HL,4660
2324             L131:
2324 11 1C 00            LD    DE,28
2327 C5                  PUSH  BC
2328 47                  LD    B,A
2329 7C                  LD    A,H
232A A2                  AND   A,D
232B 67                  LD    H,A
232C 7D                  LD    A,L
232D A3                  AND   A,E
232E 6F                  LD    L,A
232F 78                  LD    A,B
2330 C1                  POP   BC
2331             L132:
2331 3E 14               LD    A,20
2333             L133:
2333 5F                  LD    E,A
2334 16 00               LD    D,0
2336 EB                  EX    DE,HL
2337 B7                  OR    A
2338 ED 52               SBC   HL,DE
233A             L134:
233A C2 45 23            JP    NZ,L138
233D             L135:
233D 3E 0A               LD    A,10
233F             L136:
233F CD BE 21            CALL  writeLineA
2342             L137:
2342 C3 4B 23            JP    L141
2345             L138:
2345 21 E7 03            LD    HL,999
2348             L139:
2348 CD 96 21            CALL  writeLineHL
234B             L140:
234B                     ;;test15.j(35)   if (0x1234 | 0x1C == 0x123C) println (11); else println (999); //0001.0010.0011.0100 | 0001.1100 = 0001.0010.0011.1100
234B             L141:
234B 21 34 12            LD    HL,4660
234E             L142:
234E 11 1C 00            LD    DE,28
2351 C5                  PUSH  BC
2352 47                  LD    B,A
2353 7C                  LD    A,H
2354 B2                  OR    A,D
2355 67                  LD    H,A
2356 7D                  LD    A,L
2357 B3                  OR    A,E
2358 6F                  LD    L,A
2359 78                  LD    A,B
235A C1                  POP   BC
235B             L143:
235B 11 3C 12            LD    DE,4668
235E B7                  OR    A
235F ED 52               SBC   HL,DE
2361             L144:
2361 C2 6C 23            JP    NZ,L148
2364             L145:
2364 3E 0B               LD    A,11
2366             L146:
2366 CD BE 21            CALL  writeLineA
2369             L147:
2369 C3 72 23            JP    L151
236C             L148:
236C 21 E7 03            LD    HL,999
236F             L149:
236F CD 96 21            CALL  writeLineHL
2372             L150:
2372                     ;;test15.j(36)   if (0x1234 ^ 0x1C == 0x1228) println (12); else println (999); //0001.0010.0011.0100 ^ 0001.1100 = 0001.0010.0010.1000
2372             L151:
2372 21 34 12            LD    HL,4660
2375             L152:
2375 11 1C 00            LD    DE,28
2378 C5                  PUSH  BC
2379 47                  LD    B,A
237A 7C                  LD    A,H
237B AA                  XOR   A,D
237C 67                  LD    H,A
237D 7D                  LD    A,L
237E AB                  XOR   A,E
237F 6F                  LD    L,A
2380 78                  LD    A,B
2381 C1                  POP   BC
2382             L153:
2382 11 28 12            LD    DE,4648
2385 B7                  OR    A
2386 ED 52               SBC   HL,DE
2388             L154:
2388 C2 93 23            JP    NZ,L158
238B             L155:
238B 3E 0C               LD    A,12
238D             L156:
238D CD BE 21            CALL  writeLineA
2390             L157:
2390 C3 99 23            JP    L165
2393             L158:
2393 21 E7 03            LD    HL,999
2396             L159:
2396 CD 96 21            CALL  writeLineHL
2399             L160:
2399                     ;;test15.j(37) 
2399             L161:
2399                     ;;test15.j(38)   //constant/acc
2399             L162:
2399                     ;;test15.j(39)   //************
2399             L163:
2399                     ;;test15.j(40)   //constant byte/acc byte
2399             L164:
2399                     ;;test15.j(41)   if (0x07 & (0x10 + 0x0C) == 0x04) println (13); else println (999);
2399             L165:
2399 3E 07               LD    A,7
239B             L166:
239B F5                  PUSH  AF
239C 3E 10               LD    A,16
239E             L167:
239E C6 0C               ADD   A,12
23A0             L168:
23A0 C1                  POP   BC
23A1 A0                  AND   A,B
23A2             L169:
23A2 D6 04               SUB   A,4
23A4             L170:
23A4 C2 AF 23            JP    NZ,L174
23A7             L171:
23A7 3E 0D               LD    A,13
23A9             L172:
23A9 CD BE 21            CALL  writeLineA
23AC             L173:
23AC C3 B5 23            JP    L177
23AF             L174:
23AF 21 E7 03            LD    HL,999
23B2             L175:
23B2 CD 96 21            CALL  writeLineHL
23B5             L176:
23B5                     ;;test15.j(42)   if (0x07 | (0x10 + 0x0C) == 0x1F) println (14); else println (999);
23B5             L177:
23B5 3E 07               LD    A,7
23B7             L178:
23B7 F5                  PUSH  AF
23B8 3E 10               LD    A,16
23BA             L179:
23BA C6 0C               ADD   A,12
23BC             L180:
23BC C1                  POP   BC
23BD B0                  OR    A,B
23BE             L181:
23BE D6 1F               SUB   A,31
23C0             L182:
23C0 C2 CB 23            JP    NZ,L186
23C3             L183:
23C3 3E 0E               LD    A,14
23C5             L184:
23C5 CD BE 21            CALL  writeLineA
23C8             L185:
23C8 C3 D1 23            JP    L189
23CB             L186:
23CB 21 E7 03            LD    HL,999
23CE             L187:
23CE CD 96 21            CALL  writeLineHL
23D1             L188:
23D1                     ;;test15.j(43)   if (0x07 ^ (0x10 + 0x0C) == 0x1B) println (15); else println (999);
23D1             L189:
23D1 3E 07               LD    A,7
23D3             L190:
23D3 F5                  PUSH  AF
23D4 3E 10               LD    A,16
23D6             L191:
23D6 C6 0C               ADD   A,12
23D8             L192:
23D8 C1                  POP   BC
23D9 A8                  XOR   A,B
23DA             L193:
23DA D6 1B               SUB   A,27
23DC             L194:
23DC C2 E7 23            JP    NZ,L198
23DF             L195:
23DF 3E 0F               LD    A,15
23E1             L196:
23E1 CD BE 21            CALL  writeLineA
23E4             L197:
23E4 C3 ED 23            JP    L202
23E7             L198:
23E7 21 E7 03            LD    HL,999
23EA             L199:
23EA CD 96 21            CALL  writeLineHL
23ED             L200:
23ED                     ;;test15.j(44)   //constant word/acc word
23ED             L201:
23ED                     ;;test15.j(45)   if (0x1234 & 0x0100 + 0x022C == 0x0224) println (16); else println (999);
23ED             L202:
23ED 21 34 12            LD    HL,4660
23F0             L203:
23F0 E6                  PUSH  HL
23F1 21 00 01            LD    HL,256
23F4             L204:
23F4 11 2C 02            LD    DE,556
23F7 19                  ADD   HL,DE
23F8             L205:
23F8 D1                  POP   DE
23F9 C5                  PUSH  BC
23FA 47                  LD    B,A
23FB 7C                  LD    A,H
23FC A2                  AND   A,D
23FD 67                  LD    H,A
23FE 7D                  LD    A,L
23FF A3                  AND   A,E
2400 6F                  LD    L,A
2401 78                  LD    A,B
2402 C1                  POP   BC
2403             L206:
2403 11 24 02            LD    DE,548
2406 B7                  OR    A
2407 ED 52               SBC   HL,DE
2409             L207:
2409 C2 14 24            JP    NZ,L211
240C             L208:
240C 3E 10               LD    A,16
240E             L209:
240E CD BE 21            CALL  writeLineA
2411             L210:
2411 C3 1A 24            JP    L214
2414             L211:
2414 21 E7 03            LD    HL,999
2417             L212:
2417 CD 96 21            CALL  writeLineHL
241A             L213:
241A                     ;;test15.j(46)   if (0x1234 | 0x0100 + 0x022C == 0x133C) println (17); else println (999);
241A             L214:
241A 21 34 12            LD    HL,4660
241D             L215:
241D E6                  PUSH  HL
241E 21 00 01            LD    HL,256
2421             L216:
2421 11 2C 02            LD    DE,556
2424 19                  ADD   HL,DE
2425             L217:
2425 D1                  POP   DE
2426 C5                  PUSH  BC
2427 47                  LD    B,A
2428 7C                  LD    A,H
2429 B2                  OR    A,D
242A 67                  LD    H,A
242B 7D                  LD    A,L
242C B3                  OR    A,E
242D 6F                  LD    L,A
242E 78                  LD    A,B
242F C1                  POP   BC
2430             L218:
2430 11 3C 13            LD    DE,4924
2433 B7                  OR    A
2434 ED 52               SBC   HL,DE
2436             L219:
2436 C2 41 24            JP    NZ,L223
2439             L220:
2439 3E 11               LD    A,17
243B             L221:
243B CD BE 21            CALL  writeLineA
243E             L222:
243E C3 47 24            JP    L226
2441             L223:
2441 21 E7 03            LD    HL,999
2444             L224:
2444 CD 96 21            CALL  writeLineHL
2447             L225:
2447                     ;;test15.j(47)   if (0x1234 ^ 0x0100 + 0x022C == 0x1118) println (18); else println (999);
2447             L226:
2447 21 34 12            LD    HL,4660
244A             L227:
244A E6                  PUSH  HL
244B 21 00 01            LD    HL,256
244E             L228:
244E 11 2C 02            LD    DE,556
2451 19                  ADD   HL,DE
2452             L229:
2452 D1                  POP   DE
2453 C5                  PUSH  BC
2454 47                  LD    B,A
2455 7C                  LD    A,H
2456 AA                  XOR   A,D
2457 67                  LD    H,A
2458 7D                  LD    A,L
2459 AB                  XOR   A,E
245A 6F                  LD    L,A
245B 78                  LD    A,B
245C C1                  POP   BC
245D             L230:
245D 11 18 11            LD    DE,4376
2460 B7                  OR    A
2461 ED 52               SBC   HL,DE
2463             L231:
2463 C2 6E 24            JP    NZ,L235
2466             L232:
2466 3E 12               LD    A,18
2468             L233:
2468 CD BE 21            CALL  writeLineA
246B             L234:
246B C3 74 24            JP    L239
246E             L235:
246E 21 E7 03            LD    HL,999
2471             L236:
2471 CD 96 21            CALL  writeLineHL
2474             L237:
2474                     ;;test15.j(48)   //constant byt/acc word
2474             L238:
2474                     ;;test15.j(49)   if (0x1C & 0x1000 + 0x0234 == 0x0014) println (19); else println (999);
2474             L239:
2474 3E 1C               LD    A,28
2476             L240:
2476 21 00 10            LD    HL,4096
2479             L241:
2479 11 34 02            LD    DE,564
247C 19                  ADD   HL,DE
247D             L242:
247D A5                  AND   A,L
247E 6F                  LD    L,A
247F 26 00               LD    H,0
2481             L243:
2481 3E 14               LD    A,20
2483             L244:
2483 5F                  LD    E,A
2484 16 00               LD    D,0
2486 EB                  EX    DE,HL
2487 B7                  OR    A
2488 ED 52               SBC   HL,DE
248A             L245:
248A C2 95 24            JP    NZ,L249
248D             L246:
248D 3E 13               LD    A,19
248F             L247:
248F CD BE 21            CALL  writeLineA
2492             L248:
2492 C3 9B 24            JP    L252
2495             L249:
2495 21 E7 03            LD    HL,999
2498             L250:
2498 CD 96 21            CALL  writeLineHL
249B             L251:
249B                     ;;test15.j(50)   if (0x1C | 0x1000 + 0x0234 == 0x123C) println (20); else println (999);
249B             L252:
249B 3E 1C               LD    A,28
249D             L253:
249D 21 00 10            LD    HL,4096
24A0             L254:
24A0 11 34 02            LD    DE,564
24A3 19                  ADD   HL,DE
24A4             L255:
24A4 B5                  OR    A,L
24A5 6F                  LD    L,A
24A6             L256:
24A6 11 3C 12            LD    DE,4668
24A9 B7                  OR    A
24AA ED 52               SBC   HL,DE
24AC             L257:
24AC C2 B7 24            JP    NZ,L261
24AF             L258:
24AF 3E 14               LD    A,20
24B1             L259:
24B1 CD BE 21            CALL  writeLineA
24B4             L260:
24B4 C3 BD 24            JP    L264
24B7             L261:
24B7 21 E7 03            LD    HL,999
24BA             L262:
24BA CD 96 21            CALL  writeLineHL
24BD             L263:
24BD                     ;;test15.j(51)   if (0x1C ^ 0x1000 + 0x0234 == 0x1228) println (21); else println (999);
24BD             L264:
24BD 3E 1C               LD    A,28
24BF             L265:
24BF 21 00 10            LD    HL,4096
24C2             L266:
24C2 11 34 02            LD    DE,564
24C5 19                  ADD   HL,DE
24C6             L267:
24C6 AD                  XOR   A,L
24C7 6F                  LD    L,A
24C8             L268:
24C8 11 28 12            LD    DE,4648
24CB B7                  OR    A
24CC ED 52               SBC   HL,DE
24CE             L269:
24CE C2 D9 24            JP    NZ,L273
24D1             L270:
24D1 3E 15               LD    A,21
24D3             L271:
24D3 CD BE 21            CALL  writeLineA
24D6             L272:
24D6 C3 DF 24            JP    L277
24D9             L273:
24D9 21 E7 03            LD    HL,999
24DC             L274:
24DC CD 96 21            CALL  writeLineHL
24DF             L275:
24DF                     ;;test15.j(52)   //constant word/acc byt
24DF             L276:
24DF                     ;;test15.j(53)   if (0x1234 & 0x10 + 0x0C == 0x0014) println (22); else println (999);
24DF             L277:
24DF 21 34 12            LD    HL,4660
24E2             L278:
24E2 3E 10               LD    A,16
24E4             L279:
24E4 C6 0C               ADD   A,12
24E6             L280:
24E6 A5                  AND   A,L
24E7 6F                  LD    L,A
24E8 26 00               LD    H,0
24EA             L281:
24EA 3E 14               LD    A,20
24EC             L282:
24EC 5F                  LD    E,A
24ED 16 00               LD    D,0
24EF EB                  EX    DE,HL
24F0 B7                  OR    A
24F1 ED 52               SBC   HL,DE
24F3             L283:
24F3 C2 FE 24            JP    NZ,L287
24F6             L284:
24F6 3E 16               LD    A,22
24F8             L285:
24F8 CD BE 21            CALL  writeLineA
24FB             L286:
24FB C3 04 25            JP    L290
24FE             L287:
24FE 21 E7 03            LD    HL,999
2501             L288:
2501 CD 96 21            CALL  writeLineHL
2504             L289:
2504                     ;;test15.j(54)   if (0x1234 | 0x10 + 0x0C == 0x123C) println (23); else println (999);
2504             L290:
2504 21 34 12            LD    HL,4660
2507             L291:
2507 3E 10               LD    A,16
2509             L292:
2509 C6 0C               ADD   A,12
250B             L293:
250B B5                  OR    A,L
250C 6F                  LD    L,A
250D             L294:
250D 11 3C 12            LD    DE,4668
2510 B7                  OR    A
2511 ED 52               SBC   HL,DE
2513             L295:
2513 C2 1E 25            JP    NZ,L299
2516             L296:
2516 3E 17               LD    A,23
2518             L297:
2518 CD BE 21            CALL  writeLineA
251B             L298:
251B C3 24 25            JP    L302
251E             L299:
251E 21 E7 03            LD    HL,999
2521             L300:
2521 CD 96 21            CALL  writeLineHL
2524             L301:
2524                     ;;test15.j(55)   if (0x1234 ^ 0x10 + 0x0C == 0x1228) println (24); else println (999);
2524             L302:
2524 21 34 12            LD    HL,4660
2527             L303:
2527 3E 10               LD    A,16
2529             L304:
2529 C6 0C               ADD   A,12
252B             L305:
252B AD                  XOR   A,L
252C 6F                  LD    L,A
252D             L306:
252D 11 28 12            LD    DE,4648
2530 B7                  OR    A
2531 ED 52               SBC   HL,DE
2533             L307:
2533 C2 3E 25            JP    NZ,L311
2536             L308:
2536 3E 18               LD    A,24
2538             L309:
2538 CD BE 21            CALL  writeLineA
253B             L310:
253B C3 44 25            JP    L318
253E             L311:
253E 21 E7 03            LD    HL,999
2541             L312:
2541 CD 96 21            CALL  writeLineHL
2544             L313:
2544                     ;;test15.j(56) 
2544             L314:
2544                     ;;test15.j(57)   //constant/var
2544             L315:
2544                     ;;test15.j(58)   //*****************
2544             L316:
2544                     ;;test15.j(59)   //constant byte/var byte
2544             L317:
2544                     ;;test15.j(60)   if (0x07 & b1 == 0x04) println (25); else println (999);
2544             L318:
2544 3E 07               LD    A,7
2546             L319:
2546 47                  LD    B,A
2547 3A 00 50            LD    A,(05000H)
254A A0                  AND   A,B
254B             L320:
254B D6 04               SUB   A,4
254D             L321:
254D C2 58 25            JP    NZ,L325
2550             L322:
2550 3E 19               LD    A,25
2552             L323:
2552 CD BE 21            CALL  writeLineA
2555             L324:
2555 C3 5E 25            JP    L328
2558             L325:
2558 21 E7 03            LD    HL,999
255B             L326:
255B CD 96 21            CALL  writeLineHL
255E             L327:
255E                     ;;test15.j(61)   if (0x07 | b1 == 0x1F) println (26); else println (999);
255E             L328:
255E 3E 07               LD    A,7
2560             L329:
2560 47                  LD    B,A
2561 3A 00 50            LD    A,(05000H)
2564 B0                  OR    A,B
2565             L330:
2565 D6 1F               SUB   A,31
2567             L331:
2567 C2 72 25            JP    NZ,L335
256A             L332:
256A 3E 1A               LD    A,26
256C             L333:
256C CD BE 21            CALL  writeLineA
256F             L334:
256F C3 78 25            JP    L338
2572             L335:
2572 21 E7 03            LD    HL,999
2575             L336:
2575 CD 96 21            CALL  writeLineHL
2578             L337:
2578                     ;;test15.j(62)   if (0x07 ^ b1 == 0x1B) println (27); else println (999);
2578             L338:
2578 3E 07               LD    A,7
257A             L339:
257A 47                  LD    B,A
257B 3A 00 50            LD    A,(05000H)
257E A8                  XOR   A,B
257F             L340:
257F D6 1B               SUB   A,27
2581             L341:
2581 C2 8C 25            JP    NZ,L345
2584             L342:
2584 3E 1B               LD    A,27
2586             L343:
2586 CD BE 21            CALL  writeLineA
2589             L344:
2589 C3 92 25            JP    L349
258C             L345:
258C 21 E7 03            LD    HL,999
258F             L346:
258F CD 96 21            CALL  writeLineHL
2592             L347:
2592                     ;;test15.j(63)   //constant word/var word
2592             L348:
2592                     ;;test15.j(64)   if (0x1234 & w1 == 0x0224) println (28); else println (999);
2592             L349:
2592 21 34 12            LD    HL,4660
2595             L350:
2595 ED 5B 02 50         LD    DE,(05002H)
2599 C5                  PUSH  BC
259A 47                  LD    B,A
259B 7C                  LD    A,H
259C A2                  AND   A,D
259D 67                  LD    H,A
259E 7D                  LD    A,L
259F A3                  AND   A,E
25A0 6F                  LD    L,A
25A1 78                  LD    A,B
25A2 C1                  POP   BC
25A3             L351:
25A3 11 24 02            LD    DE,548
25A6 B7                  OR    A
25A7 ED 52               SBC   HL,DE
25A9             L352:
25A9 C2 B4 25            JP    NZ,L356
25AC             L353:
25AC 3E 1C               LD    A,28
25AE             L354:
25AE CD BE 21            CALL  writeLineA
25B1             L355:
25B1 C3 BA 25            JP    L359
25B4             L356:
25B4 21 E7 03            LD    HL,999
25B7             L357:
25B7 CD 96 21            CALL  writeLineHL
25BA             L358:
25BA                     ;;test15.j(65)   if (0x1234 | w1 == 0x133C) println (29); else println (999);
25BA             L359:
25BA 21 34 12            LD    HL,4660
25BD             L360:
25BD ED 5B 02 50         LD    DE,(05002H)
25C1 C5                  PUSH  BC
25C2 47                  LD    B,A
25C3 7C                  LD    A,H
25C4 B2                  OR    A,D
25C5 67                  LD    H,A
25C6 7D                  LD    A,L
25C7 B3                  OR    A,E
25C8 6F                  LD    L,A
25C9 78                  LD    A,B
25CA C1                  POP   BC
25CB             L361:
25CB 11 3C 13            LD    DE,4924
25CE B7                  OR    A
25CF ED 52               SBC   HL,DE
25D1             L362:
25D1 C2 DC 25            JP    NZ,L366
25D4             L363:
25D4 3E 1D               LD    A,29
25D6             L364:
25D6 CD BE 21            CALL  writeLineA
25D9             L365:
25D9 C3 E2 25            JP    L369
25DC             L366:
25DC 21 E7 03            LD    HL,999
25DF             L367:
25DF CD 96 21            CALL  writeLineHL
25E2             L368:
25E2                     ;;test15.j(66)   if (0x1234 ^ w1 == 0x1118) println (30); else println (999);
25E2             L369:
25E2 21 34 12            LD    HL,4660
25E5             L370:
25E5 ED 5B 02 50         LD    DE,(05002H)
25E9 C5                  PUSH  BC
25EA 47                  LD    B,A
25EB 7C                  LD    A,H
25EC AA                  XOR   A,D
25ED 67                  LD    H,A
25EE 7D                  LD    A,L
25EF AB                  XOR   A,E
25F0 6F                  LD    L,A
25F1 78                  LD    A,B
25F2 C1                  POP   BC
25F3             L371:
25F3 11 18 11            LD    DE,4376
25F6 B7                  OR    A
25F7 ED 52               SBC   HL,DE
25F9             L372:
25F9 C2 04 26            JP    NZ,L376
25FC             L373:
25FC 3E 1E               LD    A,30
25FE             L374:
25FE CD BE 21            CALL  writeLineA
2601             L375:
2601 C3 0A 26            JP    L380
2604             L376:
2604 21 E7 03            LD    HL,999
2607             L377:
2607 CD 96 21            CALL  writeLineHL
260A             L378:
260A                     ;;test15.j(67)   //constant byt/var word
260A             L379:
260A                     ;;test15.j(68)   if (0x1C & w2 == 0x0014) println (31); else println (999);
260A             L380:
260A 3E 1C               LD    A,28
260C             L381:
260C 6F                  LD    L,A
260D 26 00               LD    H,0
260F             L382:
260F ED 5B 04 50         LD    DE,(05004H)
2613 C5                  PUSH  BC
2614 47                  LD    B,A
2615 7C                  LD    A,H
2616 A2                  AND   A,D
2617 67                  LD    H,A
2618 7D                  LD    A,L
2619 A3                  AND   A,E
261A 6F                  LD    L,A
261B 78                  LD    A,B
261C C1                  POP   BC
261D             L383:
261D 3E 14               LD    A,20
261F             L384:
261F 5F                  LD    E,A
2620 16 00               LD    D,0
2622 EB                  EX    DE,HL
2623 B7                  OR    A
2624 ED 52               SBC   HL,DE
2626             L385:
2626 C2 31 26            JP    NZ,L389
2629             L386:
2629 3E 1F               LD    A,31
262B             L387:
262B CD BE 21            CALL  writeLineA
262E             L388:
262E C3 37 26            JP    L392
2631             L389:
2631 21 E7 03            LD    HL,999
2634             L390:
2634 CD 96 21            CALL  writeLineHL
2637             L391:
2637                     ;;test15.j(69)   if (0x1C | w2 == 0x123C) println (32); else println (999);
2637             L392:
2637 3E 1C               LD    A,28
2639             L393:
2639 6F                  LD    L,A
263A 26 00               LD    H,0
263C             L394:
263C ED 5B 04 50         LD    DE,(05004H)
2640 C5                  PUSH  BC
2641 47                  LD    B,A
2642 7C                  LD    A,H
2643 B2                  OR    A,D
2644 67                  LD    H,A
2645 7D                  LD    A,L
2646 B3                  OR    A,E
2647 6F                  LD    L,A
2648 78                  LD    A,B
2649 C1                  POP   BC
264A             L395:
264A 11 3C 12            LD    DE,4668
264D B7                  OR    A
264E ED 52               SBC   HL,DE
2650             L396:
2650 C2 5B 26            JP    NZ,L400
2653             L397:
2653 3E 20               LD    A,32
2655             L398:
2655 CD BE 21            CALL  writeLineA
2658             L399:
2658 C3 61 26            JP    L403
265B             L400:
265B 21 E7 03            LD    HL,999
265E             L401:
265E CD 96 21            CALL  writeLineHL
2661             L402:
2661                     ;;test15.j(70)   if (0x1C ^ w2 == 0x1228) println (33); else println (999);
2661             L403:
2661 3E 1C               LD    A,28
2663             L404:
2663 6F                  LD    L,A
2664 26 00               LD    H,0
2666             L405:
2666 ED 5B 04 50         LD    DE,(05004H)
266A C5                  PUSH  BC
266B 47                  LD    B,A
266C 7C                  LD    A,H
266D AA                  XOR   A,D
266E 67                  LD    H,A
266F 7D                  LD    A,L
2670 AB                  XOR   A,E
2671 6F                  LD    L,A
2672 78                  LD    A,B
2673 C1                  POP   BC
2674             L406:
2674 11 28 12            LD    DE,4648
2677 B7                  OR    A
2678 ED 52               SBC   HL,DE
267A             L407:
267A C2 85 26            JP    NZ,L411
267D             L408:
267D 3E 21               LD    A,33
267F             L409:
267F CD BE 21            CALL  writeLineA
2682             L410:
2682 C3 8B 26            JP    L415
2685             L411:
2685 21 E7 03            LD    HL,999
2688             L412:
2688 CD 96 21            CALL  writeLineHL
268B             L413:
268B                     ;;test15.j(71)   //constant word/var byt
268B             L414:
268B                     ;;test15.j(72)   if (0x1234 & b1 == 0x0014) println (34); else println (999);
268B             L415:
268B 21 34 12            LD    HL,4660
268E             L416:
268E ED 5B 00 50         LD    DE,(05000H)
2692 C5                  PUSH  BC
2693 47                  LD    B,A
2694 7C                  LD    A,H
2695 A2                  AND   A,D
2696 67                  LD    H,A
2697 7D                  LD    A,L
2698 A3                  AND   A,E
2699 6F                  LD    L,A
269A 78                  LD    A,B
269B C1                  POP   BC
269C             L417:
269C 3E 14               LD    A,20
269E             L418:
269E 5F                  LD    E,A
269F 16 00               LD    D,0
26A1 EB                  EX    DE,HL
26A2 B7                  OR    A
26A3 ED 52               SBC   HL,DE
26A5             L419:
26A5 C2 B0 26            JP    NZ,L423
26A8             L420:
26A8 3E 22               LD    A,34
26AA             L421:
26AA CD BE 21            CALL  writeLineA
26AD             L422:
26AD C3 B6 26            JP    L426
26B0             L423:
26B0 21 E7 03            LD    HL,999
26B3             L424:
26B3 CD 96 21            CALL  writeLineHL
26B6             L425:
26B6                     ;;test15.j(73)   if (0x1234 | b1 == 0x123C) println (35); else println (999);
26B6             L426:
26B6 21 34 12            LD    HL,4660
26B9             L427:
26B9 ED 5B 00 50         LD    DE,(05000H)
26BD C5                  PUSH  BC
26BE 47                  LD    B,A
26BF 7C                  LD    A,H
26C0 B2                  OR    A,D
26C1 67                  LD    H,A
26C2 7D                  LD    A,L
26C3 B3                  OR    A,E
26C4 6F                  LD    L,A
26C5 78                  LD    A,B
26C6 C1                  POP   BC
26C7             L428:
26C7 11 3C 12            LD    DE,4668
26CA B7                  OR    A
26CB ED 52               SBC   HL,DE
26CD             L429:
26CD C2 D8 26            JP    NZ,L433
26D0             L430:
26D0 3E 23               LD    A,35
26D2             L431:
26D2 CD BE 21            CALL  writeLineA
26D5             L432:
26D5 C3 DE 26            JP    L436
26D8             L433:
26D8 21 E7 03            LD    HL,999
26DB             L434:
26DB CD 96 21            CALL  writeLineHL
26DE             L435:
26DE                     ;;test15.j(74)   if (0x1234 ^ b1 == 0x1228) println (36); else println (999);
26DE             L436:
26DE 21 34 12            LD    HL,4660
26E1             L437:
26E1 ED 5B 00 50         LD    DE,(05000H)
26E5 C5                  PUSH  BC
26E6 47                  LD    B,A
26E7 7C                  LD    A,H
26E8 AA                  XOR   A,D
26E9 67                  LD    H,A
26EA 7D                  LD    A,L
26EB AB                  XOR   A,E
26EC 6F                  LD    L,A
26ED 78                  LD    A,B
26EE C1                  POP   BC
26EF             L438:
26EF 11 28 12            LD    DE,4648
26F2 B7                  OR    A
26F3 ED 52               SBC   HL,DE
26F5             L439:
26F5 C2 00 27            JP    NZ,L443
26F8             L440:
26F8 3E 24               LD    A,36
26FA             L441:
26FA CD BE 21            CALL  writeLineA
26FD             L442:
26FD C3 06 27            JP    L450
2700             L443:
2700 21 E7 03            LD    HL,999
2703             L444:
2703 CD 96 21            CALL  writeLineHL
2706             L445:
2706                     ;;test15.j(75) 
2706             L446:
2706                     ;;test15.j(76)   //constant/final var
2706             L447:
2706                     ;;test15.j(77)   //*****************
2706             L448:
2706                     ;;test15.j(78)   //constant byte/final var byte
2706             L449:
2706                     ;;test15.j(79)   if (0x07 & fb1 == 0x04) println (37); else println (999);
2706             L450:
2706 3E 07               LD    A,7
2708             L451:
2708 E6 1C               AND   A,28
270A             L452:
270A D6 04               SUB   A,4
270C             L453:
270C C2 17 27            JP    NZ,L457
270F             L454:
270F 3E 25               LD    A,37
2711             L455:
2711 CD BE 21            CALL  writeLineA
2714             L456:
2714 C3 1D 27            JP    L460
2717             L457:
2717 21 E7 03            LD    HL,999
271A             L458:
271A CD 96 21            CALL  writeLineHL
271D             L459:
271D                     ;;test15.j(80)   if (0x07 | fb1 == 0x1F) println (38); else println (999);
271D             L460:
271D 3E 07               LD    A,7
271F             L461:
271F F6 1C               OR    A,28
2721             L462:
2721 D6 1F               SUB   A,31
2723             L463:
2723 C2 2E 27            JP    NZ,L467
2726             L464:
2726 3E 26               LD    A,38
2728             L465:
2728 CD BE 21            CALL  writeLineA
272B             L466:
272B C3 34 27            JP    L470
272E             L467:
272E 21 E7 03            LD    HL,999
2731             L468:
2731 CD 96 21            CALL  writeLineHL
2734             L469:
2734                     ;;test15.j(81)   if (0x07 ^ fb1 == 0x1B) println (39); else println (999);
2734             L470:
2734 3E 07               LD    A,7
2736             L471:
2736 EE 1C               XOR   A,28
2738             L472:
2738 D6 1B               SUB   A,27
273A             L473:
273A C2 45 27            JP    NZ,L477
273D             L474:
273D 3E 27               LD    A,39
273F             L475:
273F CD BE 21            CALL  writeLineA
2742             L476:
2742 C3 4B 27            JP    L481
2745             L477:
2745 21 E7 03            LD    HL,999
2748             L478:
2748 CD 96 21            CALL  writeLineHL
274B             L479:
274B                     ;;test15.j(82)   //constant word/final var word
274B             L480:
274B                     ;;test15.j(83)   if (0x1234 & fw1 == 0x0224) println (40); else println (999);
274B             L481:
274B 21 34 12            LD    HL,4660
274E             L482:
274E 11 2C 03            LD    DE,812
2751 C5                  PUSH  BC
2752 47                  LD    B,A
2753 7C                  LD    A,H
2754 A2                  AND   A,D
2755 67                  LD    H,A
2756 7D                  LD    A,L
2757 A3                  AND   A,E
2758 6F                  LD    L,A
2759 78                  LD    A,B
275A C1                  POP   BC
275B             L483:
275B 11 24 02            LD    DE,548
275E B7                  OR    A
275F ED 52               SBC   HL,DE
2761             L484:
2761 C2 6C 27            JP    NZ,L488
2764             L485:
2764 3E 28               LD    A,40
2766             L486:
2766 CD BE 21            CALL  writeLineA
2769             L487:
2769 C3 72 27            JP    L491
276C             L488:
276C 21 E7 03            LD    HL,999
276F             L489:
276F CD 96 21            CALL  writeLineHL
2772             L490:
2772                     ;;test15.j(84)   if (0x1234 | fw1 == 0x133C) println (41); else println (999);
2772             L491:
2772 21 34 12            LD    HL,4660
2775             L492:
2775 11 2C 03            LD    DE,812
2778 C5                  PUSH  BC
2779 47                  LD    B,A
277A 7C                  LD    A,H
277B B2                  OR    A,D
277C 67                  LD    H,A
277D 7D                  LD    A,L
277E B3                  OR    A,E
277F 6F                  LD    L,A
2780 78                  LD    A,B
2781 C1                  POP   BC
2782             L493:
2782 11 3C 13            LD    DE,4924
2785 B7                  OR    A
2786 ED 52               SBC   HL,DE
2788             L494:
2788 C2 93 27            JP    NZ,L498
278B             L495:
278B 3E 29               LD    A,41
278D             L496:
278D CD BE 21            CALL  writeLineA
2790             L497:
2790 C3 99 27            JP    L501
2793             L498:
2793 21 E7 03            LD    HL,999
2796             L499:
2796 CD 96 21            CALL  writeLineHL
2799             L500:
2799                     ;;test15.j(85)   if (0x1234 ^ fw1 == 0x1118) println (42); else println (999);
2799             L501:
2799 21 34 12            LD    HL,4660
279C             L502:
279C 11 2C 03            LD    DE,812
279F C5                  PUSH  BC
27A0 47                  LD    B,A
27A1 7C                  LD    A,H
27A2 AA                  XOR   A,D
27A3 67                  LD    H,A
27A4 7D                  LD    A,L
27A5 AB                  XOR   A,E
27A6 6F                  LD    L,A
27A7 78                  LD    A,B
27A8 C1                  POP   BC
27A9             L503:
27A9 11 18 11            LD    DE,4376
27AC B7                  OR    A
27AD ED 52               SBC   HL,DE
27AF             L504:
27AF C2 BA 27            JP    NZ,L508
27B2             L505:
27B2 3E 2A               LD    A,42
27B4             L506:
27B4 CD BE 21            CALL  writeLineA
27B7             L507:
27B7 C3 C0 27            JP    L512
27BA             L508:
27BA 21 E7 03            LD    HL,999
27BD             L509:
27BD CD 96 21            CALL  writeLineHL
27C0             L510:
27C0                     ;;test15.j(86)   //constant byt/final var word
27C0             L511:
27C0                     ;;test15.j(87)   if (0x1C & fw2 == 0x0014) println (43); else println (999);
27C0             L512:
27C0 3E 1C               LD    A,28
27C2             L513:
27C2 6F                  LD    L,A
27C3 26 00               LD    H,0
27C5             L514:
27C5 11 34 12            LD    DE,4660
27C8 C5                  PUSH  BC
27C9 47                  LD    B,A
27CA 7C                  LD    A,H
27CB A2                  AND   A,D
27CC 67                  LD    H,A
27CD 7D                  LD    A,L
27CE A3                  AND   A,E
27CF 6F                  LD    L,A
27D0 78                  LD    A,B
27D1 C1                  POP   BC
27D2             L515:
27D2 3E 14               LD    A,20
27D4             L516:
27D4 5F                  LD    E,A
27D5 16 00               LD    D,0
27D7 EB                  EX    DE,HL
27D8 B7                  OR    A
27D9 ED 52               SBC   HL,DE
27DB             L517:
27DB C2 E6 27            JP    NZ,L521
27DE             L518:
27DE 3E 2B               LD    A,43
27E0             L519:
27E0 CD BE 21            CALL  writeLineA
27E3             L520:
27E3 C3 EC 27            JP    L524
27E6             L521:
27E6 21 E7 03            LD    HL,999
27E9             L522:
27E9 CD 96 21            CALL  writeLineHL
27EC             L523:
27EC                     ;;test15.j(88)   if (0x1C | fw2 == 0x123C) println (44); else println (999);
27EC             L524:
27EC 3E 1C               LD    A,28
27EE             L525:
27EE 6F                  LD    L,A
27EF 26 00               LD    H,0
27F1             L526:
27F1 11 34 12            LD    DE,4660
27F4 C5                  PUSH  BC
27F5 47                  LD    B,A
27F6 7C                  LD    A,H
27F7 B2                  OR    A,D
27F8 67                  LD    H,A
27F9 7D                  LD    A,L
27FA B3                  OR    A,E
27FB 6F                  LD    L,A
27FC 78                  LD    A,B
27FD C1                  POP   BC
27FE             L527:
27FE 11 3C 12            LD    DE,4668
2801 B7                  OR    A
2802 ED 52               SBC   HL,DE
2804             L528:
2804 C2 0F 28            JP    NZ,L532
2807             L529:
2807 3E 2C               LD    A,44
2809             L530:
2809 CD BE 21            CALL  writeLineA
280C             L531:
280C C3 15 28            JP    L535
280F             L532:
280F 21 E7 03            LD    HL,999
2812             L533:
2812 CD 96 21            CALL  writeLineHL
2815             L534:
2815                     ;;test15.j(89)   if (0x1C ^ fw2 == 0x1228) println (45); else println (999);
2815             L535:
2815 3E 1C               LD    A,28
2817             L536:
2817 6F                  LD    L,A
2818 26 00               LD    H,0
281A             L537:
281A 11 34 12            LD    DE,4660
281D C5                  PUSH  BC
281E 47                  LD    B,A
281F 7C                  LD    A,H
2820 AA                  XOR   A,D
2821 67                  LD    H,A
2822 7D                  LD    A,L
2823 AB                  XOR   A,E
2824 6F                  LD    L,A
2825 78                  LD    A,B
2826 C1                  POP   BC
2827             L538:
2827 11 28 12            LD    DE,4648
282A B7                  OR    A
282B ED 52               SBC   HL,DE
282D             L539:
282D C2 38 28            JP    NZ,L543
2830             L540:
2830 3E 2D               LD    A,45
2832             L541:
2832 CD BE 21            CALL  writeLineA
2835             L542:
2835 C3 3E 28            JP    L547
2838             L543:
2838 21 E7 03            LD    HL,999
283B             L544:
283B CD 96 21            CALL  writeLineHL
283E             L545:
283E                     ;;test15.j(90)   //constant word/final var byt
283E             L546:
283E                     ;;test15.j(91)   if (0x1234 & fb1 == 0x0014) println (46); else println (999);
283E             L547:
283E 21 34 12            LD    HL,4660
2841             L548:
2841 11 1C 00            LD    DE,28
2844 C5                  PUSH  BC
2845 47                  LD    B,A
2846 7C                  LD    A,H
2847 A2                  AND   A,D
2848 67                  LD    H,A
2849 7D                  LD    A,L
284A A3                  AND   A,E
284B 6F                  LD    L,A
284C 78                  LD    A,B
284D C1                  POP   BC
284E             L549:
284E 3E 14               LD    A,20
2850             L550:
2850 5F                  LD    E,A
2851 16 00               LD    D,0
2853 EB                  EX    DE,HL
2854 B7                  OR    A
2855 ED 52               SBC   HL,DE
2857             L551:
2857 C2 62 28            JP    NZ,L555
285A             L552:
285A 3E 2E               LD    A,46
285C             L553:
285C CD BE 21            CALL  writeLineA
285F             L554:
285F C3 68 28            JP    L558
2862             L555:
2862 21 E7 03            LD    HL,999
2865             L556:
2865 CD 96 21            CALL  writeLineHL
2868             L557:
2868                     ;;test15.j(92)   if (0x1234 | fb1 == 0x123C) println (47); else println (999);
2868             L558:
2868 21 34 12            LD    HL,4660
286B             L559:
286B 11 1C 00            LD    DE,28
286E C5                  PUSH  BC
286F 47                  LD    B,A
2870 7C                  LD    A,H
2871 B2                  OR    A,D
2872 67                  LD    H,A
2873 7D                  LD    A,L
2874 B3                  OR    A,E
2875 6F                  LD    L,A
2876 78                  LD    A,B
2877 C1                  POP   BC
2878             L560:
2878 11 3C 12            LD    DE,4668
287B B7                  OR    A
287C ED 52               SBC   HL,DE
287E             L561:
287E C2 89 28            JP    NZ,L565
2881             L562:
2881 3E 2F               LD    A,47
2883             L563:
2883 CD BE 21            CALL  writeLineA
2886             L564:
2886 C3 8F 28            JP    L568
2889             L565:
2889 21 E7 03            LD    HL,999
288C             L566:
288C CD 96 21            CALL  writeLineHL
288F             L567:
288F                     ;;test15.j(93)   if (0x1234 ^ fb1 == 0x1228) println (48); else println (999);
288F             L568:
288F 21 34 12            LD    HL,4660
2892             L569:
2892 11 1C 00            LD    DE,28
2895 C5                  PUSH  BC
2896 47                  LD    B,A
2897 7C                  LD    A,H
2898 AA                  XOR   A,D
2899 67                  LD    H,A
289A 7D                  LD    A,L
289B AB                  XOR   A,E
289C 6F                  LD    L,A
289D 78                  LD    A,B
289E C1                  POP   BC
289F             L570:
289F 11 28 12            LD    DE,4648
28A2 B7                  OR    A
28A3 ED 52               SBC   HL,DE
28A5             L571:
28A5 C2 B0 28            JP    NZ,L575
28A8             L572:
28A8 3E 30               LD    A,48
28AA             L573:
28AA CD BE 21            CALL  writeLineA
28AD             L574:
28AD C3 B6 28            JP    L582
28B0             L575:
28B0 21 E7 03            LD    HL,999
28B3             L576:
28B3 CD 96 21            CALL  writeLineHL
28B6             L577:
28B6                     ;;test15.j(94) 
28B6             L578:
28B6                     ;;test15.j(95)   //acc/constant
28B6             L579:
28B6                     ;;test15.j(96)   //************
28B6             L580:
28B6                     ;;test15.j(97)   //acc byte/constant byte
28B6             L581:
28B6                     ;;test15.j(98)   if ((0x04 + 0x03) & 0x1C == 0x04) println (49); else println (999);
28B6             L582:
28B6 3E 04               LD    A,4
28B8             L583:
28B8 C6 03               ADD   A,3
28BA             L584:
28BA E6 1C               AND   A,28
28BC             L585:
28BC D6 04               SUB   A,4
28BE             L586:
28BE C2 C9 28            JP    NZ,L590
28C1             L587:
28C1 3E 31               LD    A,49
28C3             L588:
28C3 CD BE 21            CALL  writeLineA
28C6             L589:
28C6 C3 CF 28            JP    L593
28C9             L590:
28C9 21 E7 03            LD    HL,999
28CC             L591:
28CC CD 96 21            CALL  writeLineHL
28CF             L592:
28CF                     ;;test15.j(99)   if ((0x04 + 0x03) | 0x1C == 0x1F) println (50); else println (999);
28CF             L593:
28CF 3E 04               LD    A,4
28D1             L594:
28D1 C6 03               ADD   A,3
28D3             L595:
28D3 F6 1C               OR    A,28
28D5             L596:
28D5 D6 1F               SUB   A,31
28D7             L597:
28D7 C2 E2 28            JP    NZ,L601
28DA             L598:
28DA 3E 32               LD    A,50
28DC             L599:
28DC CD BE 21            CALL  writeLineA
28DF             L600:
28DF C3 E8 28            JP    L604
28E2             L601:
28E2 21 E7 03            LD    HL,999
28E5             L602:
28E5 CD 96 21            CALL  writeLineHL
28E8             L603:
28E8                     ;;test15.j(100)   if ((0x04 + 0x03) ^ 0x1C == 0x1B) println (51); else println (999);
28E8             L604:
28E8 3E 04               LD    A,4
28EA             L605:
28EA C6 03               ADD   A,3
28EC             L606:
28EC EE 1C               XOR   A,28
28EE             L607:
28EE D6 1B               SUB   A,27
28F0             L608:
28F0 C2 FB 28            JP    NZ,L612
28F3             L609:
28F3 3E 33               LD    A,51
28F5             L610:
28F5 CD BE 21            CALL  writeLineA
28F8             L611:
28F8 C3 01 29            JP    L616
28FB             L612:
28FB 21 E7 03            LD    HL,999
28FE             L613:
28FE CD 96 21            CALL  writeLineHL
2901             L614:
2901                     ;;test15.j(101)   //acc word/constant word
2901             L615:
2901                     ;;test15.j(102)   if (0x1000 + 0x0234 & 0x032C == 0x0224) println (52); else println (999);
2901             L616:
2901 21 00 10            LD    HL,4096
2904             L617:
2904 11 34 02            LD    DE,564
2907 19                  ADD   HL,DE
2908             L618:
2908 11 2C 03            LD    DE,812
290B C5                  PUSH  BC
290C 47                  LD    B,A
290D 7C                  LD    A,H
290E A2                  AND   A,D
290F 67                  LD    H,A
2910 7D                  LD    A,L
2911 A3                  AND   A,E
2912 6F                  LD    L,A
2913 78                  LD    A,B
2914 C1                  POP   BC
2915             L619:
2915 11 24 02            LD    DE,548
2918 B7                  OR    A
2919 ED 52               SBC   HL,DE
291B             L620:
291B C2 26 29            JP    NZ,L624
291E             L621:
291E 3E 34               LD    A,52
2920             L622:
2920 CD BE 21            CALL  writeLineA
2923             L623:
2923 C3 2C 29            JP    L627
2926             L624:
2926 21 E7 03            LD    HL,999
2929             L625:
2929 CD 96 21            CALL  writeLineHL
292C             L626:
292C                     ;;test15.j(103)   if (0x1000 + 0x0234 | 0x032C == 0x133C) println (53); else println (999);
292C             L627:
292C 21 00 10            LD    HL,4096
292F             L628:
292F 11 34 02            LD    DE,564
2932 19                  ADD   HL,DE
2933             L629:
2933 11 2C 03            LD    DE,812
2936 C5                  PUSH  BC
2937 47                  LD    B,A
2938 7C                  LD    A,H
2939 B2                  OR    A,D
293A 67                  LD    H,A
293B 7D                  LD    A,L
293C B3                  OR    A,E
293D 6F                  LD    L,A
293E 78                  LD    A,B
293F C1                  POP   BC
2940             L630:
2940 11 3C 13            LD    DE,4924
2943 B7                  OR    A
2944 ED 52               SBC   HL,DE
2946             L631:
2946 C2 51 29            JP    NZ,L635
2949             L632:
2949 3E 35               LD    A,53
294B             L633:
294B CD BE 21            CALL  writeLineA
294E             L634:
294E C3 57 29            JP    L638
2951             L635:
2951 21 E7 03            LD    HL,999
2954             L636:
2954 CD 96 21            CALL  writeLineHL
2957             L637:
2957                     ;;test15.j(104)   if (0x1000 + 0x0234 ^ 0x032C == 0x1118) println (54); else println (999);
2957             L638:
2957 21 00 10            LD    HL,4096
295A             L639:
295A 11 34 02            LD    DE,564
295D 19                  ADD   HL,DE
295E             L640:
295E 11 2C 03            LD    DE,812
2961 C5                  PUSH  BC
2962 47                  LD    B,A
2963 7C                  LD    A,H
2964 AA                  XOR   A,D
2965 67                  LD    H,A
2966 7D                  LD    A,L
2967 AB                  XOR   A,E
2968 6F                  LD    L,A
2969 78                  LD    A,B
296A C1                  POP   BC
296B             L641:
296B 11 18 11            LD    DE,4376
296E B7                  OR    A
296F ED 52               SBC   HL,DE
2971             L642:
2971 C2 7C 29            JP    NZ,L646
2974             L643:
2974 3E 36               LD    A,54
2976             L644:
2976 CD BE 21            CALL  writeLineA
2979             L645:
2979 C3 82 29            JP    L650
297C             L646:
297C 21 E7 03            LD    HL,999
297F             L647:
297F CD 96 21            CALL  writeLineHL
2982             L648:
2982                     ;;test15.j(105)   //acc byt/constant word
2982             L649:
2982                     ;;test15.j(106)   if (0x10 + 0x0C & 0x1234 == 0x0014) println (55); else println (999);
2982             L650:
2982 3E 10               LD    A,16
2984             L651:
2984 C6 0C               ADD   A,12
2986             L652:
2986 6F                  LD    L,A
2987 26 00               LD    H,0
2989             L653:
2989 11 34 12            LD    DE,4660
298C C5                  PUSH  BC
298D 47                  LD    B,A
298E 7C                  LD    A,H
298F A2                  AND   A,D
2990 67                  LD    H,A
2991 7D                  LD    A,L
2992 A3                  AND   A,E
2993 6F                  LD    L,A
2994 78                  LD    A,B
2995 C1                  POP   BC
2996             L654:
2996 3E 14               LD    A,20
2998             L655:
2998 5F                  LD    E,A
2999 16 00               LD    D,0
299B EB                  EX    DE,HL
299C B7                  OR    A
299D ED 52               SBC   HL,DE
299F             L656:
299F C2 AA 29            JP    NZ,L660
29A2             L657:
29A2 3E 37               LD    A,55
29A4             L658:
29A4 CD BE 21            CALL  writeLineA
29A7             L659:
29A7 C3 B0 29            JP    L663
29AA             L660:
29AA 21 E7 03            LD    HL,999
29AD             L661:
29AD CD 96 21            CALL  writeLineHL
29B0             L662:
29B0                     ;;test15.j(107)   if (0x10 + 0x0C | 0x1234 == 0x123C) println (56); else println (999);
29B0             L663:
29B0 3E 10               LD    A,16
29B2             L664:
29B2 C6 0C               ADD   A,12
29B4             L665:
29B4 6F                  LD    L,A
29B5 26 00               LD    H,0
29B7             L666:
29B7 11 34 12            LD    DE,4660
29BA C5                  PUSH  BC
29BB 47                  LD    B,A
29BC 7C                  LD    A,H
29BD B2                  OR    A,D
29BE 67                  LD    H,A
29BF 7D                  LD    A,L
29C0 B3                  OR    A,E
29C1 6F                  LD    L,A
29C2 78                  LD    A,B
29C3 C1                  POP   BC
29C4             L667:
29C4 11 3C 12            LD    DE,4668
29C7 B7                  OR    A
29C8 ED 52               SBC   HL,DE
29CA             L668:
29CA C2 D5 29            JP    NZ,L672
29CD             L669:
29CD 3E 38               LD    A,56
29CF             L670:
29CF CD BE 21            CALL  writeLineA
29D2             L671:
29D2 C3 DB 29            JP    L675
29D5             L672:
29D5 21 E7 03            LD    HL,999
29D8             L673:
29D8 CD 96 21            CALL  writeLineHL
29DB             L674:
29DB                     ;;test15.j(108)   if (0x10 + 0x0C ^ 0x1234 == 0x1228) println (57); else println (999);
29DB             L675:
29DB 3E 10               LD    A,16
29DD             L676:
29DD C6 0C               ADD   A,12
29DF             L677:
29DF 6F                  LD    L,A
29E0 26 00               LD    H,0
29E2             L678:
29E2 11 34 12            LD    DE,4660
29E5 C5                  PUSH  BC
29E6 47                  LD    B,A
29E7 7C                  LD    A,H
29E8 AA                  XOR   A,D
29E9 67                  LD    H,A
29EA 7D                  LD    A,L
29EB AB                  XOR   A,E
29EC 6F                  LD    L,A
29ED 78                  LD    A,B
29EE C1                  POP   BC
29EF             L679:
29EF 11 28 12            LD    DE,4648
29F2 B7                  OR    A
29F3 ED 52               SBC   HL,DE
29F5             L680:
29F5 C2 00 2A            JP    NZ,L684
29F8             L681:
29F8 3E 39               LD    A,57
29FA             L682:
29FA CD BE 21            CALL  writeLineA
29FD             L683:
29FD C3 06 2A            JP    L688
2A00             L684:
2A00 21 E7 03            LD    HL,999
2A03             L685:
2A03 CD 96 21            CALL  writeLineHL
2A06             L686:
2A06                     ;;test15.j(109)   //acc word/constant byt
2A06             L687:
2A06                     ;;test15.j(110)   if (0x1000 + 0x0234 & 0x1C == 0x0014) println (58); else println (999);
2A06             L688:
2A06 21 00 10            LD    HL,4096
2A09             L689:
2A09 11 34 02            LD    DE,564
2A0C 19                  ADD   HL,DE
2A0D             L690:
2A0D 11 1C 00            LD    DE,28
2A10 C5                  PUSH  BC
2A11 47                  LD    B,A
2A12 7C                  LD    A,H
2A13 A2                  AND   A,D
2A14 67                  LD    H,A
2A15 7D                  LD    A,L
2A16 A3                  AND   A,E
2A17 6F                  LD    L,A
2A18 78                  LD    A,B
2A19 C1                  POP   BC
2A1A             L691:
2A1A 3E 14               LD    A,20
2A1C             L692:
2A1C 5F                  LD    E,A
2A1D 16 00               LD    D,0
2A1F EB                  EX    DE,HL
2A20 B7                  OR    A
2A21 ED 52               SBC   HL,DE
2A23             L693:
2A23 C2 2E 2A            JP    NZ,L697
2A26             L694:
2A26 3E 3A               LD    A,58
2A28             L695:
2A28 CD BE 21            CALL  writeLineA
2A2B             L696:
2A2B C3 34 2A            JP    L700
2A2E             L697:
2A2E 21 E7 03            LD    HL,999
2A31             L698:
2A31 CD 96 21            CALL  writeLineHL
2A34             L699:
2A34                     ;;test15.j(111)   if (0x1000 + 0x0234 | 0x1C == 0x123C) println (59); else println (999);
2A34             L700:
2A34 21 00 10            LD    HL,4096
2A37             L701:
2A37 11 34 02            LD    DE,564
2A3A 19                  ADD   HL,DE
2A3B             L702:
2A3B 11 1C 00            LD    DE,28
2A3E C5                  PUSH  BC
2A3F 47                  LD    B,A
2A40 7C                  LD    A,H
2A41 B2                  OR    A,D
2A42 67                  LD    H,A
2A43 7D                  LD    A,L
2A44 B3                  OR    A,E
2A45 6F                  LD    L,A
2A46 78                  LD    A,B
2A47 C1                  POP   BC
2A48             L703:
2A48 11 3C 12            LD    DE,4668
2A4B B7                  OR    A
2A4C ED 52               SBC   HL,DE
2A4E             L704:
2A4E C2 59 2A            JP    NZ,L708
2A51             L705:
2A51 3E 3B               LD    A,59
2A53             L706:
2A53 CD BE 21            CALL  writeLineA
2A56             L707:
2A56 C3 5F 2A            JP    L711
2A59             L708:
2A59 21 E7 03            LD    HL,999
2A5C             L709:
2A5C CD 96 21            CALL  writeLineHL
2A5F             L710:
2A5F                     ;;test15.j(112)   if (0x1000 + 0x0234 ^ 0x1C == 0x1228) println (60); else println (999);
2A5F             L711:
2A5F 21 00 10            LD    HL,4096
2A62             L712:
2A62 11 34 02            LD    DE,564
2A65 19                  ADD   HL,DE
2A66             L713:
2A66 11 1C 00            LD    DE,28
2A69 C5                  PUSH  BC
2A6A 47                  LD    B,A
2A6B 7C                  LD    A,H
2A6C AA                  XOR   A,D
2A6D 67                  LD    H,A
2A6E 7D                  LD    A,L
2A6F AB                  XOR   A,E
2A70 6F                  LD    L,A
2A71 78                  LD    A,B
2A72 C1                  POP   BC
2A73             L714:
2A73 11 28 12            LD    DE,4648
2A76 B7                  OR    A
2A77 ED 52               SBC   HL,DE
2A79             L715:
2A79 C2 84 2A            JP    NZ,L719
2A7C             L716:
2A7C 3E 3C               LD    A,60
2A7E             L717:
2A7E CD BE 21            CALL  writeLineA
2A81             L718:
2A81 C3 8A 2A            JP    L726
2A84             L719:
2A84 21 E7 03            LD    HL,999
2A87             L720:
2A87 CD 96 21            CALL  writeLineHL
2A8A             L721:
2A8A                     ;;test15.j(113) 
2A8A             L722:
2A8A                     ;;test15.j(114)   //acc/acc
2A8A             L723:
2A8A                     ;;test15.j(115)   //*******
2A8A             L724:
2A8A                     ;;test15.j(116)   //acc byte/acc byte
2A8A             L725:
2A8A                     ;;test15.j(117)   if (0x04 + 0x03 & 0x10 + 0x0C == 0x04) println (61); else println (999);
2A8A             L726:
2A8A 3E 04               LD    A,4
2A8C             L727:
2A8C C6 03               ADD   A,3
2A8E             L728:
2A8E F5                  PUSH  AF
2A8F 3E 10               LD    A,16
2A91             L729:
2A91 C6 0C               ADD   A,12
2A93             L730:
2A93 C1                  POP   BC
2A94 A0                  AND   A,B
2A95             L731:
2A95 D6 04               SUB   A,4
2A97             L732:
2A97 C2 A2 2A            JP    NZ,L736
2A9A             L733:
2A9A 3E 3D               LD    A,61
2A9C             L734:
2A9C CD BE 21            CALL  writeLineA
2A9F             L735:
2A9F C3 A8 2A            JP    L739
2AA2             L736:
2AA2 21 E7 03            LD    HL,999
2AA5             L737:
2AA5 CD 96 21            CALL  writeLineHL
2AA8             L738:
2AA8                     ;;test15.j(118)   if (0x04 + 0x03 | 0x10 + 0x0C == 0x1F) println (62); else println (999);
2AA8             L739:
2AA8 3E 04               LD    A,4
2AAA             L740:
2AAA C6 03               ADD   A,3
2AAC             L741:
2AAC F5                  PUSH  AF
2AAD 3E 10               LD    A,16
2AAF             L742:
2AAF C6 0C               ADD   A,12
2AB1             L743:
2AB1 C1                  POP   BC
2AB2 B0                  OR    A,B
2AB3             L744:
2AB3 D6 1F               SUB   A,31
2AB5             L745:
2AB5 C2 C0 2A            JP    NZ,L749
2AB8             L746:
2AB8 3E 3E               LD    A,62
2ABA             L747:
2ABA CD BE 21            CALL  writeLineA
2ABD             L748:
2ABD C3 C6 2A            JP    L752
2AC0             L749:
2AC0 21 E7 03            LD    HL,999
2AC3             L750:
2AC3 CD 96 21            CALL  writeLineHL
2AC6             L751:
2AC6                     ;;test15.j(119)   if (0x04 + 0x03 ^ 0x10 + 0x0C == 0x1B) println (63); else println (999);
2AC6             L752:
2AC6 3E 04               LD    A,4
2AC8             L753:
2AC8 C6 03               ADD   A,3
2ACA             L754:
2ACA F5                  PUSH  AF
2ACB 3E 10               LD    A,16
2ACD             L755:
2ACD C6 0C               ADD   A,12
2ACF             L756:
2ACF C1                  POP   BC
2AD0 A8                  XOR   A,B
2AD1             L757:
2AD1 D6 1B               SUB   A,27
2AD3             L758:
2AD3 C2 DE 2A            JP    NZ,L762
2AD6             L759:
2AD6 3E 3F               LD    A,63
2AD8             L760:
2AD8 CD BE 21            CALL  writeLineA
2ADB             L761:
2ADB C3 E4 2A            JP    L766
2ADE             L762:
2ADE 21 E7 03            LD    HL,999
2AE1             L763:
2AE1 CD 96 21            CALL  writeLineHL
2AE4             L764:
2AE4                     ;;test15.j(120)   //acc word/acc word
2AE4             L765:
2AE4                     ;;test15.j(121)   if (0x1000 + 0x0234 & 0x0100 + 0x022C == 0x0224) println (64); else println (999);
2AE4             L766:
2AE4 21 00 10            LD    HL,4096
2AE7             L767:
2AE7 11 34 02            LD    DE,564
2AEA 19                  ADD   HL,DE
2AEB             L768:
2AEB E6                  PUSH  HL
2AEC 21 00 01            LD    HL,256
2AEF             L769:
2AEF 11 2C 02            LD    DE,556
2AF2 19                  ADD   HL,DE
2AF3             L770:
2AF3 D1                  POP   DE
2AF4 C5                  PUSH  BC
2AF5 47                  LD    B,A
2AF6 7C                  LD    A,H
2AF7 A2                  AND   A,D
2AF8 67                  LD    H,A
2AF9 7D                  LD    A,L
2AFA A3                  AND   A,E
2AFB 6F                  LD    L,A
2AFC 78                  LD    A,B
2AFD C1                  POP   BC
2AFE             L771:
2AFE 11 24 02            LD    DE,548
2B01 B7                  OR    A
2B02 ED 52               SBC   HL,DE
2B04             L772:
2B04 C2 0F 2B            JP    NZ,L776
2B07             L773:
2B07 3E 40               LD    A,64
2B09             L774:
2B09 CD BE 21            CALL  writeLineA
2B0C             L775:
2B0C C3 15 2B            JP    L779
2B0F             L776:
2B0F 21 E7 03            LD    HL,999
2B12             L777:
2B12 CD 96 21            CALL  writeLineHL
2B15             L778:
2B15                     ;;test15.j(122)   if (0x1000 + 0x0234 | 0x0100 + 0x022C == 0x133C) println (65); else println (999);
2B15             L779:
2B15 21 00 10            LD    HL,4096
2B18             L780:
2B18 11 34 02            LD    DE,564
2B1B 19                  ADD   HL,DE
2B1C             L781:
2B1C E6                  PUSH  HL
2B1D 21 00 01            LD    HL,256
2B20             L782:
2B20 11 2C 02            LD    DE,556
2B23 19                  ADD   HL,DE
2B24             L783:
2B24 D1                  POP   DE
2B25 C5                  PUSH  BC
2B26 47                  LD    B,A
2B27 7C                  LD    A,H
2B28 B2                  OR    A,D
2B29 67                  LD    H,A
2B2A 7D                  LD    A,L
2B2B B3                  OR    A,E
2B2C 6F                  LD    L,A
2B2D 78                  LD    A,B
2B2E C1                  POP   BC
2B2F             L784:
2B2F 11 3C 13            LD    DE,4924
2B32 B7                  OR    A
2B33 ED 52               SBC   HL,DE
2B35             L785:
2B35 C2 40 2B            JP    NZ,L789
2B38             L786:
2B38 3E 41               LD    A,65
2B3A             L787:
2B3A CD BE 21            CALL  writeLineA
2B3D             L788:
2B3D C3 46 2B            JP    L792
2B40             L789:
2B40 21 E7 03            LD    HL,999
2B43             L790:
2B43 CD 96 21            CALL  writeLineHL
2B46             L791:
2B46                     ;;test15.j(123)   if (0x1000 + 0x0234 ^ 0x0100 + 0x022C == 0x1118) println (66); else println (999);
2B46             L792:
2B46 21 00 10            LD    HL,4096
2B49             L793:
2B49 11 34 02            LD    DE,564
2B4C 19                  ADD   HL,DE
2B4D             L794:
2B4D E6                  PUSH  HL
2B4E 21 00 01            LD    HL,256
2B51             L795:
2B51 11 2C 02            LD    DE,556
2B54 19                  ADD   HL,DE
2B55             L796:
2B55 D1                  POP   DE
2B56 C5                  PUSH  BC
2B57 47                  LD    B,A
2B58 7C                  LD    A,H
2B59 AA                  XOR   A,D
2B5A 67                  LD    H,A
2B5B 7D                  LD    A,L
2B5C AB                  XOR   A,E
2B5D 6F                  LD    L,A
2B5E 78                  LD    A,B
2B5F C1                  POP   BC
2B60             L797:
2B60 11 18 11            LD    DE,4376
2B63 B7                  OR    A
2B64 ED 52               SBC   HL,DE
2B66             L798:
2B66 C2 71 2B            JP    NZ,L802
2B69             L799:
2B69 3E 42               LD    A,66
2B6B             L800:
2B6B CD BE 21            CALL  writeLineA
2B6E             L801:
2B6E C3 77 2B            JP    L806
2B71             L802:
2B71 21 E7 03            LD    HL,999
2B74             L803:
2B74 CD 96 21            CALL  writeLineHL
2B77             L804:
2B77                     ;;test15.j(124)   //acc byt/acc word
2B77             L805:
2B77                     ;;test15.j(125)   if (0x10 + 0x0C & 0x1000 + 0x0234 == 0x0014) println (67); else println (999);
2B77             L806:
2B77 3E 10               LD    A,16
2B79             L807:
2B79 C6 0C               ADD   A,12
2B7B             L808:
2B7B 21 00 10            LD    HL,4096
2B7E             L809:
2B7E 11 34 02            LD    DE,564
2B81 19                  ADD   HL,DE
2B82             L810:
2B82 A5                  AND   A,L
2B83 6F                  LD    L,A
2B84 26 00               LD    H,0
2B86             L811:
2B86 3E 14               LD    A,20
2B88             L812:
2B88 5F                  LD    E,A
2B89 16 00               LD    D,0
2B8B EB                  EX    DE,HL
2B8C B7                  OR    A
2B8D ED 52               SBC   HL,DE
2B8F             L813:
2B8F C2 9A 2B            JP    NZ,L817
2B92             L814:
2B92 3E 43               LD    A,67
2B94             L815:
2B94 CD BE 21            CALL  writeLineA
2B97             L816:
2B97 C3 A0 2B            JP    L820
2B9A             L817:
2B9A 21 E7 03            LD    HL,999
2B9D             L818:
2B9D CD 96 21            CALL  writeLineHL
2BA0             L819:
2BA0                     ;;test15.j(126)   if (0x10 + 0x0C | 0x1000 + 0x0234 == 0x123C) println (68); else println (999);
2BA0             L820:
2BA0 3E 10               LD    A,16
2BA2             L821:
2BA2 C6 0C               ADD   A,12
2BA4             L822:
2BA4 21 00 10            LD    HL,4096
2BA7             L823:
2BA7 11 34 02            LD    DE,564
2BAA 19                  ADD   HL,DE
2BAB             L824:
2BAB B5                  OR    A,L
2BAC 6F                  LD    L,A
2BAD             L825:
2BAD 11 3C 12            LD    DE,4668
2BB0 B7                  OR    A
2BB1 ED 52               SBC   HL,DE
2BB3             L826:
2BB3 C2 BE 2B            JP    NZ,L830
2BB6             L827:
2BB6 3E 44               LD    A,68
2BB8             L828:
2BB8 CD BE 21            CALL  writeLineA
2BBB             L829:
2BBB C3 C4 2B            JP    L833
2BBE             L830:
2BBE 21 E7 03            LD    HL,999
2BC1             L831:
2BC1 CD 96 21            CALL  writeLineHL
2BC4             L832:
2BC4                     ;;test15.j(127)   if (0x10 + 0x0C ^ 0x1000 + 0x0234 == 0x1228) println (69); else println (999);
2BC4             L833:
2BC4 3E 10               LD    A,16
2BC6             L834:
2BC6 C6 0C               ADD   A,12
2BC8             L835:
2BC8 21 00 10            LD    HL,4096
2BCB             L836:
2BCB 11 34 02            LD    DE,564
2BCE 19                  ADD   HL,DE
2BCF             L837:
2BCF AD                  XOR   A,L
2BD0 6F                  LD    L,A
2BD1             L838:
2BD1 11 28 12            LD    DE,4648
2BD4 B7                  OR    A
2BD5 ED 52               SBC   HL,DE
2BD7             L839:
2BD7 C2 E2 2B            JP    NZ,L843
2BDA             L840:
2BDA 3E 45               LD    A,69
2BDC             L841:
2BDC CD BE 21            CALL  writeLineA
2BDF             L842:
2BDF C3 E8 2B            JP    L847
2BE2             L843:
2BE2 21 E7 03            LD    HL,999
2BE5             L844:
2BE5 CD 96 21            CALL  writeLineHL
2BE8             L845:
2BE8                     ;;test15.j(128)   //acc word/acc byt
2BE8             L846:
2BE8                     ;;test15.j(129)   if (0x1000 + 0x0234 & 0x10 + 0x0C == 0x0014) println (70); else println (999);
2BE8             L847:
2BE8 21 00 10            LD    HL,4096
2BEB             L848:
2BEB 11 34 02            LD    DE,564
2BEE 19                  ADD   HL,DE
2BEF             L849:
2BEF 3E 10               LD    A,16
2BF1             L850:
2BF1 C6 0C               ADD   A,12
2BF3             L851:
2BF3 A5                  AND   A,L
2BF4 6F                  LD    L,A
2BF5 26 00               LD    H,0
2BF7             L852:
2BF7 3E 14               LD    A,20
2BF9             L853:
2BF9 5F                  LD    E,A
2BFA 16 00               LD    D,0
2BFC EB                  EX    DE,HL
2BFD B7                  OR    A
2BFE ED 52               SBC   HL,DE
2C00             L854:
2C00 C2 0B 2C            JP    NZ,L858
2C03             L855:
2C03 3E 46               LD    A,70
2C05             L856:
2C05 CD BE 21            CALL  writeLineA
2C08             L857:
2C08 C3 11 2C            JP    L861
2C0B             L858:
2C0B 21 E7 03            LD    HL,999
2C0E             L859:
2C0E CD 96 21            CALL  writeLineHL
2C11             L860:
2C11                     ;;test15.j(130)   if (0x1000 + 0x0234 | 0x10 + 0x0C == 0x123C) println (71); else println (999);
2C11             L861:
2C11 21 00 10            LD    HL,4096
2C14             L862:
2C14 11 34 02            LD    DE,564
2C17 19                  ADD   HL,DE
2C18             L863:
2C18 3E 10               LD    A,16
2C1A             L864:
2C1A C6 0C               ADD   A,12
2C1C             L865:
2C1C B5                  OR    A,L
2C1D 6F                  LD    L,A
2C1E             L866:
2C1E 11 3C 12            LD    DE,4668
2C21 B7                  OR    A
2C22 ED 52               SBC   HL,DE
2C24             L867:
2C24 C2 2F 2C            JP    NZ,L871
2C27             L868:
2C27 3E 47               LD    A,71
2C29             L869:
2C29 CD BE 21            CALL  writeLineA
2C2C             L870:
2C2C C3 35 2C            JP    L874
2C2F             L871:
2C2F 21 E7 03            LD    HL,999
2C32             L872:
2C32 CD 96 21            CALL  writeLineHL
2C35             L873:
2C35                     ;;test15.j(131)   if (0x1000 + 0x0234 ^ 0x10 + 0x0C == 0x1228) println (72); else println (999);
2C35             L874:
2C35 21 00 10            LD    HL,4096
2C38             L875:
2C38 11 34 02            LD    DE,564
2C3B 19                  ADD   HL,DE
2C3C             L876:
2C3C 3E 10               LD    A,16
2C3E             L877:
2C3E C6 0C               ADD   A,12
2C40             L878:
2C40 AD                  XOR   A,L
2C41 6F                  LD    L,A
2C42             L879:
2C42 11 28 12            LD    DE,4648
2C45 B7                  OR    A
2C46 ED 52               SBC   HL,DE
2C48             L880:
2C48 C2 53 2C            JP    NZ,L884
2C4B             L881:
2C4B 3E 48               LD    A,72
2C4D             L882:
2C4D CD BE 21            CALL  writeLineA
2C50             L883:
2C50 C3 59 2C            JP    L891
2C53             L884:
2C53 21 E7 03            LD    HL,999
2C56             L885:
2C56 CD 96 21            CALL  writeLineHL
2C59             L886:
2C59                     ;;test15.j(132) 
2C59             L887:
2C59                     ;;test15.j(133)   //acc/var
2C59             L888:
2C59                     ;;test15.j(134)   //*******
2C59             L889:
2C59                     ;;test15.j(135)   //acc byte/var byte
2C59             L890:
2C59                     ;;test15.j(136)   if (0x04 + 0x03 & b1 == 0x04) println (73); else println (999);
2C59             L891:
2C59 3E 04               LD    A,4
2C5B             L892:
2C5B C6 03               ADD   A,3
2C5D             L893:
2C5D 47                  LD    B,A
2C5E 3A 00 50            LD    A,(05000H)
2C61 A0                  AND   A,B
2C62             L894:
2C62 D6 04               SUB   A,4
2C64             L895:
2C64 C2 6F 2C            JP    NZ,L899
2C67             L896:
2C67 3E 49               LD    A,73
2C69             L897:
2C69 CD BE 21            CALL  writeLineA
2C6C             L898:
2C6C C3 75 2C            JP    L902
2C6F             L899:
2C6F 21 E7 03            LD    HL,999
2C72             L900:
2C72 CD 96 21            CALL  writeLineHL
2C75             L901:
2C75                     ;;test15.j(137)   if (0x04 + 0x03 | b1 == 0x1F) println (74); else println (999);
2C75             L902:
2C75 3E 04               LD    A,4
2C77             L903:
2C77 C6 03               ADD   A,3
2C79             L904:
2C79 47                  LD    B,A
2C7A 3A 00 50            LD    A,(05000H)
2C7D B0                  OR    A,B
2C7E             L905:
2C7E D6 1F               SUB   A,31
2C80             L906:
2C80 C2 8B 2C            JP    NZ,L910
2C83             L907:
2C83 3E 4A               LD    A,74
2C85             L908:
2C85 CD BE 21            CALL  writeLineA
2C88             L909:
2C88 C3 91 2C            JP    L913
2C8B             L910:
2C8B 21 E7 03            LD    HL,999
2C8E             L911:
2C8E CD 96 21            CALL  writeLineHL
2C91             L912:
2C91                     ;;test15.j(138)   if (0x04 + 0x03 ^ b1 == 0x1B) println (75); else println (999);
2C91             L913:
2C91 3E 04               LD    A,4
2C93             L914:
2C93 C6 03               ADD   A,3
2C95             L915:
2C95 47                  LD    B,A
2C96 3A 00 50            LD    A,(05000H)
2C99 A8                  XOR   A,B
2C9A             L916:
2C9A D6 1B               SUB   A,27
2C9C             L917:
2C9C C2 A7 2C            JP    NZ,L921
2C9F             L918:
2C9F 3E 4B               LD    A,75
2CA1             L919:
2CA1 CD BE 21            CALL  writeLineA
2CA4             L920:
2CA4 C3 AD 2C            JP    L925
2CA7             L921:
2CA7 21 E7 03            LD    HL,999
2CAA             L922:
2CAA CD 96 21            CALL  writeLineHL
2CAD             L923:
2CAD                     ;;test15.j(139)   //acc word/var word
2CAD             L924:
2CAD                     ;;test15.j(140)   if (0x1000 + 0x0234 & w1 == 0x0224) println (76); else println (999);
2CAD             L925:
2CAD 21 00 10            LD    HL,4096
2CB0             L926:
2CB0 11 34 02            LD    DE,564
2CB3 19                  ADD   HL,DE
2CB4             L927:
2CB4 ED 5B 02 50         LD    DE,(05002H)
2CB8 C5                  PUSH  BC
2CB9 47                  LD    B,A
2CBA 7C                  LD    A,H
2CBB A2                  AND   A,D
2CBC 67                  LD    H,A
2CBD 7D                  LD    A,L
2CBE A3                  AND   A,E
2CBF 6F                  LD    L,A
2CC0 78                  LD    A,B
2CC1 C1                  POP   BC
2CC2             L928:
2CC2 11 24 02            LD    DE,548
2CC5 B7                  OR    A
2CC6 ED 52               SBC   HL,DE
2CC8             L929:
2CC8 C2 D3 2C            JP    NZ,L933
2CCB             L930:
2CCB 3E 4C               LD    A,76
2CCD             L931:
2CCD CD BE 21            CALL  writeLineA
2CD0             L932:
2CD0 C3 D9 2C            JP    L936
2CD3             L933:
2CD3 21 E7 03            LD    HL,999
2CD6             L934:
2CD6 CD 96 21            CALL  writeLineHL
2CD9             L935:
2CD9                     ;;test15.j(141)   if (0x1000 + 0x0234 | w1 == 0x133C) println (77); else println (999);
2CD9             L936:
2CD9 21 00 10            LD    HL,4096
2CDC             L937:
2CDC 11 34 02            LD    DE,564
2CDF 19                  ADD   HL,DE
2CE0             L938:
2CE0 ED 5B 02 50         LD    DE,(05002H)
2CE4 C5                  PUSH  BC
2CE5 47                  LD    B,A
2CE6 7C                  LD    A,H
2CE7 B2                  OR    A,D
2CE8 67                  LD    H,A
2CE9 7D                  LD    A,L
2CEA B3                  OR    A,E
2CEB 6F                  LD    L,A
2CEC 78                  LD    A,B
2CED C1                  POP   BC
2CEE             L939:
2CEE 11 3C 13            LD    DE,4924
2CF1 B7                  OR    A
2CF2 ED 52               SBC   HL,DE
2CF4             L940:
2CF4 C2 FF 2C            JP    NZ,L944
2CF7             L941:
2CF7 3E 4D               LD    A,77
2CF9             L942:
2CF9 CD BE 21            CALL  writeLineA
2CFC             L943:
2CFC C3 05 2D            JP    L947
2CFF             L944:
2CFF 21 E7 03            LD    HL,999
2D02             L945:
2D02 CD 96 21            CALL  writeLineHL
2D05             L946:
2D05                     ;;test15.j(142)   if (0x1000 + 0x0234 ^ w1 == 0x1118) println (78); else println (999);
2D05             L947:
2D05 21 00 10            LD    HL,4096
2D08             L948:
2D08 11 34 02            LD    DE,564
2D0B 19                  ADD   HL,DE
2D0C             L949:
2D0C ED 5B 02 50         LD    DE,(05002H)
2D10 C5                  PUSH  BC
2D11 47                  LD    B,A
2D12 7C                  LD    A,H
2D13 AA                  XOR   A,D
2D14 67                  LD    H,A
2D15 7D                  LD    A,L
2D16 AB                  XOR   A,E
2D17 6F                  LD    L,A
2D18 78                  LD    A,B
2D19 C1                  POP   BC
2D1A             L950:
2D1A 11 18 11            LD    DE,4376
2D1D B7                  OR    A
2D1E ED 52               SBC   HL,DE
2D20             L951:
2D20 C2 2B 2D            JP    NZ,L955
2D23             L952:
2D23 3E 4E               LD    A,78
2D25             L953:
2D25 CD BE 21            CALL  writeLineA
2D28             L954:
2D28 C3 31 2D            JP    L959
2D2B             L955:
2D2B 21 E7 03            LD    HL,999
2D2E             L956:
2D2E CD 96 21            CALL  writeLineHL
2D31             L957:
2D31                     ;;test15.j(143)   //acc byt/var word
2D31             L958:
2D31                     ;;test15.j(144)   if (0x10 + 0x0C & w2 == 0x0014) println (79); else println (999);
2D31             L959:
2D31 3E 10               LD    A,16
2D33             L960:
2D33 C6 0C               ADD   A,12
2D35             L961:
2D35 6F                  LD    L,A
2D36 26 00               LD    H,0
2D38             L962:
2D38 ED 5B 04 50         LD    DE,(05004H)
2D3C C5                  PUSH  BC
2D3D 47                  LD    B,A
2D3E 7C                  LD    A,H
2D3F A2                  AND   A,D
2D40 67                  LD    H,A
2D41 7D                  LD    A,L
2D42 A3                  AND   A,E
2D43 6F                  LD    L,A
2D44 78                  LD    A,B
2D45 C1                  POP   BC
2D46             L963:
2D46 3E 14               LD    A,20
2D48             L964:
2D48 5F                  LD    E,A
2D49 16 00               LD    D,0
2D4B EB                  EX    DE,HL
2D4C B7                  OR    A
2D4D ED 52               SBC   HL,DE
2D4F             L965:
2D4F C2 5A 2D            JP    NZ,L969
2D52             L966:
2D52 3E 4F               LD    A,79
2D54             L967:
2D54 CD BE 21            CALL  writeLineA
2D57             L968:
2D57 C3 60 2D            JP    L972
2D5A             L969:
2D5A 21 E7 03            LD    HL,999
2D5D             L970:
2D5D CD 96 21            CALL  writeLineHL
2D60             L971:
2D60                     ;;test15.j(145)   if (0x10 + 0x0C | w2 == 0x123C) println (80); else println (999);
2D60             L972:
2D60 3E 10               LD    A,16
2D62             L973:
2D62 C6 0C               ADD   A,12
2D64             L974:
2D64 6F                  LD    L,A
2D65 26 00               LD    H,0
2D67             L975:
2D67 ED 5B 04 50         LD    DE,(05004H)
2D6B C5                  PUSH  BC
2D6C 47                  LD    B,A
2D6D 7C                  LD    A,H
2D6E B2                  OR    A,D
2D6F 67                  LD    H,A
2D70 7D                  LD    A,L
2D71 B3                  OR    A,E
2D72 6F                  LD    L,A
2D73 78                  LD    A,B
2D74 C1                  POP   BC
2D75             L976:
2D75 11 3C 12            LD    DE,4668
2D78 B7                  OR    A
2D79 ED 52               SBC   HL,DE
2D7B             L977:
2D7B C2 86 2D            JP    NZ,L981
2D7E             L978:
2D7E 3E 50               LD    A,80
2D80             L979:
2D80 CD BE 21            CALL  writeLineA
2D83             L980:
2D83 C3 8C 2D            JP    L984
2D86             L981:
2D86 21 E7 03            LD    HL,999
2D89             L982:
2D89 CD 96 21            CALL  writeLineHL
2D8C             L983:
2D8C                     ;;test15.j(146)   if (0x10 + 0x0C ^ w2 == 0x1228) println (81); else println (999);
2D8C             L984:
2D8C 3E 10               LD    A,16
2D8E             L985:
2D8E C6 0C               ADD   A,12
2D90             L986:
2D90 6F                  LD    L,A
2D91 26 00               LD    H,0
2D93             L987:
2D93 ED 5B 04 50         LD    DE,(05004H)
2D97 C5                  PUSH  BC
2D98 47                  LD    B,A
2D99 7C                  LD    A,H
2D9A AA                  XOR   A,D
2D9B 67                  LD    H,A
2D9C 7D                  LD    A,L
2D9D AB                  XOR   A,E
2D9E 6F                  LD    L,A
2D9F 78                  LD    A,B
2DA0 C1                  POP   BC
2DA1             L988:
2DA1 11 28 12            LD    DE,4648
2DA4 B7                  OR    A
2DA5 ED 52               SBC   HL,DE
2DA7             L989:
2DA7 C2 B2 2D            JP    NZ,L993
2DAA             L990:
2DAA 3E 51               LD    A,81
2DAC             L991:
2DAC CD BE 21            CALL  writeLineA
2DAF             L992:
2DAF C3 B8 2D            JP    L997
2DB2             L993:
2DB2 21 E7 03            LD    HL,999
2DB5             L994:
2DB5 CD 96 21            CALL  writeLineHL
2DB8             L995:
2DB8                     ;;test15.j(147)   //acc word/var byt
2DB8             L996:
2DB8                     ;;test15.j(148)   if (0x1000 + 0x0234 & b1 == 0x0014) println (82); else println (999);
2DB8             L997:
2DB8 21 00 10            LD    HL,4096
2DBB             L998:
2DBB 11 34 02            LD    DE,564
2DBE 19                  ADD   HL,DE
2DBF             L999:
2DBF ED 5B 00 50         LD    DE,(05000H)
2DC3 C5                  PUSH  BC
2DC4 47                  LD    B,A
2DC5 7C                  LD    A,H
2DC6 A2                  AND   A,D
2DC7 67                  LD    H,A
2DC8 7D                  LD    A,L
2DC9 A3                  AND   A,E
2DCA 6F                  LD    L,A
2DCB 78                  LD    A,B
2DCC C1                  POP   BC
2DCD             L1000:
2DCD 3E 14               LD    A,20
2DCF             L1001:
2DCF 5F                  LD    E,A
2DD0 16 00               LD    D,0
2DD2 EB                  EX    DE,HL
2DD3 B7                  OR    A
2DD4 ED 52               SBC   HL,DE
2DD6             L1002:
2DD6 C2 E1 2D            JP    NZ,L1006
2DD9             L1003:
2DD9 3E 52               LD    A,82
2DDB             L1004:
2DDB CD BE 21            CALL  writeLineA
2DDE             L1005:
2DDE C3 E7 2D            JP    L1009
2DE1             L1006:
2DE1 21 E7 03            LD    HL,999
2DE4             L1007:
2DE4 CD 96 21            CALL  writeLineHL
2DE7             L1008:
2DE7                     ;;test15.j(149)   if (0x1000 + 0x0234 | b1 == 0x123C) println (83); else println (999);
2DE7             L1009:
2DE7 21 00 10            LD    HL,4096
2DEA             L1010:
2DEA 11 34 02            LD    DE,564
2DED 19                  ADD   HL,DE
2DEE             L1011:
2DEE ED 5B 00 50         LD    DE,(05000H)
2DF2 C5                  PUSH  BC
2DF3 47                  LD    B,A
2DF4 7C                  LD    A,H
2DF5 B2                  OR    A,D
2DF6 67                  LD    H,A
2DF7 7D                  LD    A,L
2DF8 B3                  OR    A,E
2DF9 6F                  LD    L,A
2DFA 78                  LD    A,B
2DFB C1                  POP   BC
2DFC             L1012:
2DFC 11 3C 12            LD    DE,4668
2DFF B7                  OR    A
2E00 ED 52               SBC   HL,DE
2E02             L1013:
2E02 C2 0D 2E            JP    NZ,L1017
2E05             L1014:
2E05 3E 53               LD    A,83
2E07             L1015:
2E07 CD BE 21            CALL  writeLineA
2E0A             L1016:
2E0A C3 13 2E            JP    L1020
2E0D             L1017:
2E0D 21 E7 03            LD    HL,999
2E10             L1018:
2E10 CD 96 21            CALL  writeLineHL
2E13             L1019:
2E13                     ;;test15.j(150)   if (0x1000 + 0x0234 ^ b1 == 0x1228) println (84); else println (999);
2E13             L1020:
2E13 21 00 10            LD    HL,4096
2E16             L1021:
2E16 11 34 02            LD    DE,564
2E19 19                  ADD   HL,DE
2E1A             L1022:
2E1A ED 5B 00 50         LD    DE,(05000H)
2E1E C5                  PUSH  BC
2E1F 47                  LD    B,A
2E20 7C                  LD    A,H
2E21 AA                  XOR   A,D
2E22 67                  LD    H,A
2E23 7D                  LD    A,L
2E24 AB                  XOR   A,E
2E25 6F                  LD    L,A
2E26 78                  LD    A,B
2E27 C1                  POP   BC
2E28             L1023:
2E28 11 28 12            LD    DE,4648
2E2B B7                  OR    A
2E2C ED 52               SBC   HL,DE
2E2E             L1024:
2E2E C2 39 2E            JP    NZ,L1028
2E31             L1025:
2E31 3E 54               LD    A,84
2E33             L1026:
2E33 CD BE 21            CALL  writeLineA
2E36             L1027:
2E36 C3 3F 2E            JP    L1035
2E39             L1028:
2E39 21 E7 03            LD    HL,999
2E3C             L1029:
2E3C CD 96 21            CALL  writeLineHL
2E3F             L1030:
2E3F                     ;;test15.j(151) 
2E3F             L1031:
2E3F                     ;;test15.j(152)   //acc/final var
2E3F             L1032:
2E3F                     ;;test15.j(153)   //*************
2E3F             L1033:
2E3F                     ;;test15.j(154)   //acc byte/final var byte
2E3F             L1034:
2E3F                     ;;test15.j(155)   if (0x04 + 0x03 & fb1 == 0x04) println (85); else println (999);
2E3F             L1035:
2E3F 3E 04               LD    A,4
2E41             L1036:
2E41 C6 03               ADD   A,3
2E43             L1037:
2E43 E6 1C               AND   A,28
2E45             L1038:
2E45 D6 04               SUB   A,4
2E47             L1039:
2E47 C2 52 2E            JP    NZ,L1043
2E4A             L1040:
2E4A 3E 55               LD    A,85
2E4C             L1041:
2E4C CD BE 21            CALL  writeLineA
2E4F             L1042:
2E4F C3 58 2E            JP    L1046
2E52             L1043:
2E52 21 E7 03            LD    HL,999
2E55             L1044:
2E55 CD 96 21            CALL  writeLineHL
2E58             L1045:
2E58                     ;;test15.j(156)   if (0x04 + 0x03 | fb1 == 0x1F) println (86); else println (999);
2E58             L1046:
2E58 3E 04               LD    A,4
2E5A             L1047:
2E5A C6 03               ADD   A,3
2E5C             L1048:
2E5C F6 1C               OR    A,28
2E5E             L1049:
2E5E D6 1F               SUB   A,31
2E60             L1050:
2E60 C2 6B 2E            JP    NZ,L1054
2E63             L1051:
2E63 3E 56               LD    A,86
2E65             L1052:
2E65 CD BE 21            CALL  writeLineA
2E68             L1053:
2E68 C3 71 2E            JP    L1057
2E6B             L1054:
2E6B 21 E7 03            LD    HL,999
2E6E             L1055:
2E6E CD 96 21            CALL  writeLineHL
2E71             L1056:
2E71                     ;;test15.j(157)   if (0x04 + 0x03 ^ fb1 == 0x1B) println (87); else println (999);
2E71             L1057:
2E71 3E 04               LD    A,4
2E73             L1058:
2E73 C6 03               ADD   A,3
2E75             L1059:
2E75 EE 1C               XOR   A,28
2E77             L1060:
2E77 D6 1B               SUB   A,27
2E79             L1061:
2E79 C2 84 2E            JP    NZ,L1065
2E7C             L1062:
2E7C 3E 57               LD    A,87
2E7E             L1063:
2E7E CD BE 21            CALL  writeLineA
2E81             L1064:
2E81 C3 8A 2E            JP    L1069
2E84             L1065:
2E84 21 E7 03            LD    HL,999
2E87             L1066:
2E87 CD 96 21            CALL  writeLineHL
2E8A             L1067:
2E8A                     ;;test15.j(158)   //acc word/final var word
2E8A             L1068:
2E8A                     ;;test15.j(159)   if (0x1000 + 0x0234 & fw1 == 0x0224) println (88); else println (999);
2E8A             L1069:
2E8A 21 00 10            LD    HL,4096
2E8D             L1070:
2E8D 11 34 02            LD    DE,564
2E90 19                  ADD   HL,DE
2E91             L1071:
2E91 11 2C 03            LD    DE,812
2E94 C5                  PUSH  BC
2E95 47                  LD    B,A
2E96 7C                  LD    A,H
2E97 A2                  AND   A,D
2E98 67                  LD    H,A
2E99 7D                  LD    A,L
2E9A A3                  AND   A,E
2E9B 6F                  LD    L,A
2E9C 78                  LD    A,B
2E9D C1                  POP   BC
2E9E             L1072:
2E9E 11 24 02            LD    DE,548
2EA1 B7                  OR    A
2EA2 ED 52               SBC   HL,DE
2EA4             L1073:
2EA4 C2 AF 2E            JP    NZ,L1077
2EA7             L1074:
2EA7 3E 58               LD    A,88
2EA9             L1075:
2EA9 CD BE 21            CALL  writeLineA
2EAC             L1076:
2EAC C3 B5 2E            JP    L1080
2EAF             L1077:
2EAF 21 E7 03            LD    HL,999
2EB2             L1078:
2EB2 CD 96 21            CALL  writeLineHL
2EB5             L1079:
2EB5                     ;;test15.j(160)   if (0x1000 + 0x0234 | fw1 == 0x133C) println (89); else println (999);
2EB5             L1080:
2EB5 21 00 10            LD    HL,4096
2EB8             L1081:
2EB8 11 34 02            LD    DE,564
2EBB 19                  ADD   HL,DE
2EBC             L1082:
2EBC 11 2C 03            LD    DE,812
2EBF C5                  PUSH  BC
2EC0 47                  LD    B,A
2EC1 7C                  LD    A,H
2EC2 B2                  OR    A,D
2EC3 67                  LD    H,A
2EC4 7D                  LD    A,L
2EC5 B3                  OR    A,E
2EC6 6F                  LD    L,A
2EC7 78                  LD    A,B
2EC8 C1                  POP   BC
2EC9             L1083:
2EC9 11 3C 13            LD    DE,4924
2ECC B7                  OR    A
2ECD ED 52               SBC   HL,DE
2ECF             L1084:
2ECF C2 DA 2E            JP    NZ,L1088
2ED2             L1085:
2ED2 3E 59               LD    A,89
2ED4             L1086:
2ED4 CD BE 21            CALL  writeLineA
2ED7             L1087:
2ED7 C3 E0 2E            JP    L1091
2EDA             L1088:
2EDA 21 E7 03            LD    HL,999
2EDD             L1089:
2EDD CD 96 21            CALL  writeLineHL
2EE0             L1090:
2EE0                     ;;test15.j(161)   if (0x1000 + 0x0234 ^ fw1 == 0x1118) println (90); else println (999);
2EE0             L1091:
2EE0 21 00 10            LD    HL,4096
2EE3             L1092:
2EE3 11 34 02            LD    DE,564
2EE6 19                  ADD   HL,DE
2EE7             L1093:
2EE7 11 2C 03            LD    DE,812
2EEA C5                  PUSH  BC
2EEB 47                  LD    B,A
2EEC 7C                  LD    A,H
2EED AA                  XOR   A,D
2EEE 67                  LD    H,A
2EEF 7D                  LD    A,L
2EF0 AB                  XOR   A,E
2EF1 6F                  LD    L,A
2EF2 78                  LD    A,B
2EF3 C1                  POP   BC
2EF4             L1094:
2EF4 11 18 11            LD    DE,4376
2EF7 B7                  OR    A
2EF8 ED 52               SBC   HL,DE
2EFA             L1095:
2EFA C2 05 2F            JP    NZ,L1099
2EFD             L1096:
2EFD 3E 5A               LD    A,90
2EFF             L1097:
2EFF CD BE 21            CALL  writeLineA
2F02             L1098:
2F02 C3 0B 2F            JP    L1103
2F05             L1099:
2F05 21 E7 03            LD    HL,999
2F08             L1100:
2F08 CD 96 21            CALL  writeLineHL
2F0B             L1101:
2F0B                     ;;test15.j(162)   //acc byt/final var word
2F0B             L1102:
2F0B                     ;;test15.j(163)   if (0x10 + 0x0C & fw2 == 0x0014) println (91); else println (999);
2F0B             L1103:
2F0B 3E 10               LD    A,16
2F0D             L1104:
2F0D C6 0C               ADD   A,12
2F0F             L1105:
2F0F 6F                  LD    L,A
2F10 26 00               LD    H,0
2F12             L1106:
2F12 11 34 12            LD    DE,4660
2F15 C5                  PUSH  BC
2F16 47                  LD    B,A
2F17 7C                  LD    A,H
2F18 A2                  AND   A,D
2F19 67                  LD    H,A
2F1A 7D                  LD    A,L
2F1B A3                  AND   A,E
2F1C 6F                  LD    L,A
2F1D 78                  LD    A,B
2F1E C1                  POP   BC
2F1F             L1107:
2F1F 3E 14               LD    A,20
2F21             L1108:
2F21 5F                  LD    E,A
2F22 16 00               LD    D,0
2F24 EB                  EX    DE,HL
2F25 B7                  OR    A
2F26 ED 52               SBC   HL,DE
2F28             L1109:
2F28 C2 33 2F            JP    NZ,L1113
2F2B             L1110:
2F2B 3E 5B               LD    A,91
2F2D             L1111:
2F2D CD BE 21            CALL  writeLineA
2F30             L1112:
2F30 C3 39 2F            JP    L1116
2F33             L1113:
2F33 21 E7 03            LD    HL,999
2F36             L1114:
2F36 CD 96 21            CALL  writeLineHL
2F39             L1115:
2F39                     ;;test15.j(164)   if (0x10 + 0x0C | fw2 == 0x123C) println (92); else println (999);
2F39             L1116:
2F39 3E 10               LD    A,16
2F3B             L1117:
2F3B C6 0C               ADD   A,12
2F3D             L1118:
2F3D 6F                  LD    L,A
2F3E 26 00               LD    H,0
2F40             L1119:
2F40 11 34 12            LD    DE,4660
2F43 C5                  PUSH  BC
2F44 47                  LD    B,A
2F45 7C                  LD    A,H
2F46 B2                  OR    A,D
2F47 67                  LD    H,A
2F48 7D                  LD    A,L
2F49 B3                  OR    A,E
2F4A 6F                  LD    L,A
2F4B 78                  LD    A,B
2F4C C1                  POP   BC
2F4D             L1120:
2F4D 11 3C 12            LD    DE,4668
2F50 B7                  OR    A
2F51 ED 52               SBC   HL,DE
2F53             L1121:
2F53 C2 5E 2F            JP    NZ,L1125
2F56             L1122:
2F56 3E 5C               LD    A,92
2F58             L1123:
2F58 CD BE 21            CALL  writeLineA
2F5B             L1124:
2F5B C3 64 2F            JP    L1128
2F5E             L1125:
2F5E 21 E7 03            LD    HL,999
2F61             L1126:
2F61 CD 96 21            CALL  writeLineHL
2F64             L1127:
2F64                     ;;test15.j(165)   if (0x10 + 0x0C ^ fw2 == 0x1228) println (93); else println (999);
2F64             L1128:
2F64 3E 10               LD    A,16
2F66             L1129:
2F66 C6 0C               ADD   A,12
2F68             L1130:
2F68 6F                  LD    L,A
2F69 26 00               LD    H,0
2F6B             L1131:
2F6B 11 34 12            LD    DE,4660
2F6E C5                  PUSH  BC
2F6F 47                  LD    B,A
2F70 7C                  LD    A,H
2F71 AA                  XOR   A,D
2F72 67                  LD    H,A
2F73 7D                  LD    A,L
2F74 AB                  XOR   A,E
2F75 6F                  LD    L,A
2F76 78                  LD    A,B
2F77 C1                  POP   BC
2F78             L1132:
2F78 11 28 12            LD    DE,4648
2F7B B7                  OR    A
2F7C ED 52               SBC   HL,DE
2F7E             L1133:
2F7E C2 89 2F            JP    NZ,L1137
2F81             L1134:
2F81 3E 5D               LD    A,93
2F83             L1135:
2F83 CD BE 21            CALL  writeLineA
2F86             L1136:
2F86 C3 8F 2F            JP    L1141
2F89             L1137:
2F89 21 E7 03            LD    HL,999
2F8C             L1138:
2F8C CD 96 21            CALL  writeLineHL
2F8F             L1139:
2F8F                     ;;test15.j(166)   //acc word/final var byt
2F8F             L1140:
2F8F                     ;;test15.j(167)   if (0x1000 + 0x0234 & fb1 == 0x0014) println (94); else println (999);
2F8F             L1141:
2F8F 21 00 10            LD    HL,4096
2F92             L1142:
2F92 11 34 02            LD    DE,564
2F95 19                  ADD   HL,DE
2F96             L1143:
2F96 11 1C 00            LD    DE,28
2F99 C5                  PUSH  BC
2F9A 47                  LD    B,A
2F9B 7C                  LD    A,H
2F9C A2                  AND   A,D
2F9D 67                  LD    H,A
2F9E 7D                  LD    A,L
2F9F A3                  AND   A,E
2FA0 6F                  LD    L,A
2FA1 78                  LD    A,B
2FA2 C1                  POP   BC
2FA3             L1144:
2FA3 3E 14               LD    A,20
2FA5             L1145:
2FA5 5F                  LD    E,A
2FA6 16 00               LD    D,0
2FA8 EB                  EX    DE,HL
2FA9 B7                  OR    A
2FAA ED 52               SBC   HL,DE
2FAC             L1146:
2FAC C2 B7 2F            JP    NZ,L1150
2FAF             L1147:
2FAF 3E 5E               LD    A,94
2FB1             L1148:
2FB1 CD BE 21            CALL  writeLineA
2FB4             L1149:
2FB4 C3 BD 2F            JP    L1153
2FB7             L1150:
2FB7 21 E7 03            LD    HL,999
2FBA             L1151:
2FBA CD 96 21            CALL  writeLineHL
2FBD             L1152:
2FBD                     ;;test15.j(168)   if (0x1000 + 0x0234 | fb1 == 0x123C) println (95); else println (999);
2FBD             L1153:
2FBD 21 00 10            LD    HL,4096
2FC0             L1154:
2FC0 11 34 02            LD    DE,564
2FC3 19                  ADD   HL,DE
2FC4             L1155:
2FC4 11 1C 00            LD    DE,28
2FC7 C5                  PUSH  BC
2FC8 47                  LD    B,A
2FC9 7C                  LD    A,H
2FCA B2                  OR    A,D
2FCB 67                  LD    H,A
2FCC 7D                  LD    A,L
2FCD B3                  OR    A,E
2FCE 6F                  LD    L,A
2FCF 78                  LD    A,B
2FD0 C1                  POP   BC
2FD1             L1156:
2FD1 11 3C 12            LD    DE,4668
2FD4 B7                  OR    A
2FD5 ED 52               SBC   HL,DE
2FD7             L1157:
2FD7 C2 E2 2F            JP    NZ,L1161
2FDA             L1158:
2FDA 3E 5F               LD    A,95
2FDC             L1159:
2FDC CD BE 21            CALL  writeLineA
2FDF             L1160:
2FDF C3 E8 2F            JP    L1164
2FE2             L1161:
2FE2 21 E7 03            LD    HL,999
2FE5             L1162:
2FE5 CD 96 21            CALL  writeLineHL
2FE8             L1163:
2FE8                     ;;test15.j(169)   if (0x1000 + 0x0234 ^ fb1 == 0x1228) println (96); else println (999);
2FE8             L1164:
2FE8 21 00 10            LD    HL,4096
2FEB             L1165:
2FEB 11 34 02            LD    DE,564
2FEE 19                  ADD   HL,DE
2FEF             L1166:
2FEF 11 1C 00            LD    DE,28
2FF2 C5                  PUSH  BC
2FF3 47                  LD    B,A
2FF4 7C                  LD    A,H
2FF5 AA                  XOR   A,D
2FF6 67                  LD    H,A
2FF7 7D                  LD    A,L
2FF8 AB                  XOR   A,E
2FF9 6F                  LD    L,A
2FFA 78                  LD    A,B
2FFB C1                  POP   BC
2FFC             L1167:
2FFC 11 28 12            LD    DE,4648
2FFF B7                  OR    A
3000 ED 52               SBC   HL,DE
3002             L1168:
3002 C2 0D 30            JP    NZ,L1172
3005             L1169:
3005 3E 60               LD    A,96
3007             L1170:
3007 CD BE 21            CALL  writeLineA
300A             L1171:
300A C3 13 30            JP    L1179
300D             L1172:
300D 21 E7 03            LD    HL,999
3010             L1173:
3010 CD 96 21            CALL  writeLineHL
3013             L1174:
3013                     ;;test15.j(170) 
3013             L1175:
3013                     ;;test15.j(171)   //var/constant
3013             L1176:
3013                     ;;test15.j(172)   //************
3013             L1177:
3013                     ;;test15.j(173)   //var byte/constant byte
3013             L1178:
3013                     ;;test15.j(174)   if (b2 & 0x1C == 0x04) println (97); else println (999);
3013             L1179:
3013 3A 01 50            LD    A,(05001H)
3016             L1180:
3016 E6 1C               AND   A,28
3018             L1181:
3018 D6 04               SUB   A,4
301A             L1182:
301A C2 25 30            JP    NZ,L1186
301D             L1183:
301D 3E 61               LD    A,97
301F             L1184:
301F CD BE 21            CALL  writeLineA
3022             L1185:
3022 C3 2B 30            JP    L1189
3025             L1186:
3025 21 E7 03            LD    HL,999
3028             L1187:
3028 CD 96 21            CALL  writeLineHL
302B             L1188:
302B                     ;;test15.j(175)   if (b2 | 0x1C == 0x1F) println (98); else println (999);
302B             L1189:
302B 3A 01 50            LD    A,(05001H)
302E             L1190:
302E F6 1C               OR    A,28
3030             L1191:
3030 D6 1F               SUB   A,31
3032             L1192:
3032 C2 3D 30            JP    NZ,L1196
3035             L1193:
3035 3E 62               LD    A,98
3037             L1194:
3037 CD BE 21            CALL  writeLineA
303A             L1195:
303A C3 43 30            JP    L1199
303D             L1196:
303D 21 E7 03            LD    HL,999
3040             L1197:
3040 CD 96 21            CALL  writeLineHL
3043             L1198:
3043                     ;;test15.j(176)   if (b2 ^ 0x1C == 0x1B) println (99); else println (999);
3043             L1199:
3043 3A 01 50            LD    A,(05001H)
3046             L1200:
3046 EE 1C               XOR   A,28
3048             L1201:
3048 D6 1B               SUB   A,27
304A             L1202:
304A C2 55 30            JP    NZ,L1206
304D             L1203:
304D 3E 63               LD    A,99
304F             L1204:
304F CD BE 21            CALL  writeLineA
3052             L1205:
3052 C3 5B 30            JP    L1210
3055             L1206:
3055 21 E7 03            LD    HL,999
3058             L1207:
3058 CD 96 21            CALL  writeLineHL
305B             L1208:
305B                     ;;test15.j(177)   //var word/constant word
305B             L1209:
305B                     ;;test15.j(178)   if (w2 & 0x032C == 0x0224) println (100); else println (999);
305B             L1210:
305B 2A 04 50            LD    HL,(05004H)
305E             L1211:
305E 11 2C 03            LD    DE,812
3061 C5                  PUSH  BC
3062 47                  LD    B,A
3063 7C                  LD    A,H
3064 A2                  AND   A,D
3065 67                  LD    H,A
3066 7D                  LD    A,L
3067 A3                  AND   A,E
3068 6F                  LD    L,A
3069 78                  LD    A,B
306A C1                  POP   BC
306B             L1212:
306B 11 24 02            LD    DE,548
306E B7                  OR    A
306F ED 52               SBC   HL,DE
3071             L1213:
3071 C2 7C 30            JP    NZ,L1217
3074             L1214:
3074 3E 64               LD    A,100
3076             L1215:
3076 CD BE 21            CALL  writeLineA
3079             L1216:
3079 C3 82 30            JP    L1220
307C             L1217:
307C 21 E7 03            LD    HL,999
307F             L1218:
307F CD 96 21            CALL  writeLineHL
3082             L1219:
3082                     ;;test15.j(179)   if (w2 | 0x032C == 0x133C) println (101); else println (999);
3082             L1220:
3082 2A 04 50            LD    HL,(05004H)
3085             L1221:
3085 11 2C 03            LD    DE,812
3088 C5                  PUSH  BC
3089 47                  LD    B,A
308A 7C                  LD    A,H
308B B2                  OR    A,D
308C 67                  LD    H,A
308D 7D                  LD    A,L
308E B3                  OR    A,E
308F 6F                  LD    L,A
3090 78                  LD    A,B
3091 C1                  POP   BC
3092             L1222:
3092 11 3C 13            LD    DE,4924
3095 B7                  OR    A
3096 ED 52               SBC   HL,DE
3098             L1223:
3098 C2 A3 30            JP    NZ,L1227
309B             L1224:
309B 3E 65               LD    A,101
309D             L1225:
309D CD BE 21            CALL  writeLineA
30A0             L1226:
30A0 C3 A9 30            JP    L1230
30A3             L1227:
30A3 21 E7 03            LD    HL,999
30A6             L1228:
30A6 CD 96 21            CALL  writeLineHL
30A9             L1229:
30A9                     ;;test15.j(180)   if (w2 ^ 0x032C == 0x1118) println (102); else println (999);
30A9             L1230:
30A9 2A 04 50            LD    HL,(05004H)
30AC             L1231:
30AC 11 2C 03            LD    DE,812
30AF C5                  PUSH  BC
30B0 47                  LD    B,A
30B1 7C                  LD    A,H
30B2 AA                  XOR   A,D
30B3 67                  LD    H,A
30B4 7D                  LD    A,L
30B5 AB                  XOR   A,E
30B6 6F                  LD    L,A
30B7 78                  LD    A,B
30B8 C1                  POP   BC
30B9             L1232:
30B9 11 18 11            LD    DE,4376
30BC B7                  OR    A
30BD ED 52               SBC   HL,DE
30BF             L1233:
30BF C2 CA 30            JP    NZ,L1237
30C2             L1234:
30C2 3E 66               LD    A,102
30C4             L1235:
30C4 CD BE 21            CALL  writeLineA
30C7             L1236:
30C7 C3 D0 30            JP    L1241
30CA             L1237:
30CA 21 E7 03            LD    HL,999
30CD             L1238:
30CD CD 96 21            CALL  writeLineHL
30D0             L1239:
30D0                     ;;test15.j(181)   //var byt/constant word
30D0             L1240:
30D0                     ;;test15.j(182)   if (b1 & 0x1234 == 0x0014) println (103); else println (999);
30D0             L1241:
30D0 3A 00 50            LD    A,(05000H)
30D3             L1242:
30D3 6F                  LD    L,A
30D4 26 00               LD    H,0
30D6             L1243:
30D6 11 34 12            LD    DE,4660
30D9 C5                  PUSH  BC
30DA 47                  LD    B,A
30DB 7C                  LD    A,H
30DC A2                  AND   A,D
30DD 67                  LD    H,A
30DE 7D                  LD    A,L
30DF A3                  AND   A,E
30E0 6F                  LD    L,A
30E1 78                  LD    A,B
30E2 C1                  POP   BC
30E3             L1244:
30E3 3E 14               LD    A,20
30E5             L1245:
30E5 5F                  LD    E,A
30E6 16 00               LD    D,0
30E8 EB                  EX    DE,HL
30E9 B7                  OR    A
30EA ED 52               SBC   HL,DE
30EC             L1246:
30EC C2 F7 30            JP    NZ,L1250
30EF             L1247:
30EF 3E 67               LD    A,103
30F1             L1248:
30F1 CD BE 21            CALL  writeLineA
30F4             L1249:
30F4 C3 FD 30            JP    L1253
30F7             L1250:
30F7 21 E7 03            LD    HL,999
30FA             L1251:
30FA CD 96 21            CALL  writeLineHL
30FD             L1252:
30FD                     ;;test15.j(183)   if (b1 | 0x1234 == 0x123C) println (104); else println (999);
30FD             L1253:
30FD 3A 00 50            LD    A,(05000H)
3100             L1254:
3100 6F                  LD    L,A
3101 26 00               LD    H,0
3103             L1255:
3103 11 34 12            LD    DE,4660
3106 C5                  PUSH  BC
3107 47                  LD    B,A
3108 7C                  LD    A,H
3109 B2                  OR    A,D
310A 67                  LD    H,A
310B 7D                  LD    A,L
310C B3                  OR    A,E
310D 6F                  LD    L,A
310E 78                  LD    A,B
310F C1                  POP   BC
3110             L1256:
3110 11 3C 12            LD    DE,4668
3113 B7                  OR    A
3114 ED 52               SBC   HL,DE
3116             L1257:
3116 C2 21 31            JP    NZ,L1261
3119             L1258:
3119 3E 68               LD    A,104
311B             L1259:
311B CD BE 21            CALL  writeLineA
311E             L1260:
311E C3 27 31            JP    L1264
3121             L1261:
3121 21 E7 03            LD    HL,999
3124             L1262:
3124 CD 96 21            CALL  writeLineHL
3127             L1263:
3127                     ;;test15.j(184)   if (b1 ^ 0x1234 == 0x1228) println (105); else println (999);
3127             L1264:
3127 3A 00 50            LD    A,(05000H)
312A             L1265:
312A 6F                  LD    L,A
312B 26 00               LD    H,0
312D             L1266:
312D 11 34 12            LD    DE,4660
3130 C5                  PUSH  BC
3131 47                  LD    B,A
3132 7C                  LD    A,H
3133 AA                  XOR   A,D
3134 67                  LD    H,A
3135 7D                  LD    A,L
3136 AB                  XOR   A,E
3137 6F                  LD    L,A
3138 78                  LD    A,B
3139 C1                  POP   BC
313A             L1267:
313A 11 28 12            LD    DE,4648
313D B7                  OR    A
313E ED 52               SBC   HL,DE
3140             L1268:
3140 C2 4B 31            JP    NZ,L1272
3143             L1269:
3143 3E 69               LD    A,105
3145             L1270:
3145 CD BE 21            CALL  writeLineA
3148             L1271:
3148 C3 51 31            JP    L1276
314B             L1272:
314B 21 E7 03            LD    HL,999
314E             L1273:
314E CD 96 21            CALL  writeLineHL
3151             L1274:
3151                     ;;test15.j(185)   //var word/constant byt
3151             L1275:
3151                     ;;test15.j(186)   if (w2 & 0x1C == 0x0014) println (106); else println (999);
3151             L1276:
3151 2A 04 50            LD    HL,(05004H)
3154             L1277:
3154 11 1C 00            LD    DE,28
3157 C5                  PUSH  BC
3158 47                  LD    B,A
3159 7C                  LD    A,H
315A A2                  AND   A,D
315B 67                  LD    H,A
315C 7D                  LD    A,L
315D A3                  AND   A,E
315E 6F                  LD    L,A
315F 78                  LD    A,B
3160 C1                  POP   BC
3161             L1278:
3161 3E 14               LD    A,20
3163             L1279:
3163 5F                  LD    E,A
3164 16 00               LD    D,0
3166 EB                  EX    DE,HL
3167 B7                  OR    A
3168 ED 52               SBC   HL,DE
316A             L1280:
316A C2 75 31            JP    NZ,L1284
316D             L1281:
316D 3E 6A               LD    A,106
316F             L1282:
316F CD BE 21            CALL  writeLineA
3172             L1283:
3172 C3 7B 31            JP    L1287
3175             L1284:
3175 21 E7 03            LD    HL,999
3178             L1285:
3178 CD 96 21            CALL  writeLineHL
317B             L1286:
317B                     ;;test15.j(187)   if (w2 | 0x1C == 0x123C) println (107); else println (999);
317B             L1287:
317B 2A 04 50            LD    HL,(05004H)
317E             L1288:
317E 11 1C 00            LD    DE,28
3181 C5                  PUSH  BC
3182 47                  LD    B,A
3183 7C                  LD    A,H
3184 B2                  OR    A,D
3185 67                  LD    H,A
3186 7D                  LD    A,L
3187 B3                  OR    A,E
3188 6F                  LD    L,A
3189 78                  LD    A,B
318A C1                  POP   BC
318B             L1289:
318B 11 3C 12            LD    DE,4668
318E B7                  OR    A
318F ED 52               SBC   HL,DE
3191             L1290:
3191 C2 9C 31            JP    NZ,L1294
3194             L1291:
3194 3E 6B               LD    A,107
3196             L1292:
3196 CD BE 21            CALL  writeLineA
3199             L1293:
3199 C3 A2 31            JP    L1297
319C             L1294:
319C 21 E7 03            LD    HL,999
319F             L1295:
319F CD 96 21            CALL  writeLineHL
31A2             L1296:
31A2                     ;;test15.j(188)   if (w2 ^ 0x1C == 0x1228) println (108); else println (999);
31A2             L1297:
31A2 2A 04 50            LD    HL,(05004H)
31A5             L1298:
31A5 11 1C 00            LD    DE,28
31A8 C5                  PUSH  BC
31A9 47                  LD    B,A
31AA 7C                  LD    A,H
31AB AA                  XOR   A,D
31AC 67                  LD    H,A
31AD 7D                  LD    A,L
31AE AB                  XOR   A,E
31AF 6F                  LD    L,A
31B0 78                  LD    A,B
31B1 C1                  POP   BC
31B2             L1299:
31B2 11 28 12            LD    DE,4648
31B5 B7                  OR    A
31B6 ED 52               SBC   HL,DE
31B8             L1300:
31B8 C2 C3 31            JP    NZ,L1304
31BB             L1301:
31BB 3E 6C               LD    A,108
31BD             L1302:
31BD CD BE 21            CALL  writeLineA
31C0             L1303:
31C0 C3 C9 31            JP    L1311
31C3             L1304:
31C3 21 E7 03            LD    HL,999
31C6             L1305:
31C6 CD 96 21            CALL  writeLineHL
31C9             L1306:
31C9                     ;;test15.j(189) 
31C9             L1307:
31C9                     ;;test15.j(190)   //var/acc
31C9             L1308:
31C9                     ;;test15.j(191)   //*******
31C9             L1309:
31C9                     ;;test15.j(192)   //var byte/acc byte
31C9             L1310:
31C9                     ;;test15.j(193)   if (b2 & (0x10 + 0x0C) == 0x04) println (109); else println (999);
31C9             L1311:
31C9 3A 01 50            LD    A,(05001H)
31CC             L1312:
31CC F5                  PUSH  AF
31CD 3E 10               LD    A,16
31CF             L1313:
31CF C6 0C               ADD   A,12
31D1             L1314:
31D1 C1                  POP   BC
31D2 A0                  AND   A,B
31D3             L1315:
31D3 D6 04               SUB   A,4
31D5             L1316:
31D5 C2 E0 31            JP    NZ,L1320
31D8             L1317:
31D8 3E 6D               LD    A,109
31DA             L1318:
31DA CD BE 21            CALL  writeLineA
31DD             L1319:
31DD C3 E6 31            JP    L1323
31E0             L1320:
31E0 21 E7 03            LD    HL,999
31E3             L1321:
31E3 CD 96 21            CALL  writeLineHL
31E6             L1322:
31E6                     ;;test15.j(194)   if (b2 | (0x10 + 0x0C) == 0x1F) println (110); else println (999);
31E6             L1323:
31E6 3A 01 50            LD    A,(05001H)
31E9             L1324:
31E9 F5                  PUSH  AF
31EA 3E 10               LD    A,16
31EC             L1325:
31EC C6 0C               ADD   A,12
31EE             L1326:
31EE C1                  POP   BC
31EF B0                  OR    A,B
31F0             L1327:
31F0 D6 1F               SUB   A,31
31F2             L1328:
31F2 C2 FD 31            JP    NZ,L1332
31F5             L1329:
31F5 3E 6E               LD    A,110
31F7             L1330:
31F7 CD BE 21            CALL  writeLineA
31FA             L1331:
31FA C3 03 32            JP    L1335
31FD             L1332:
31FD 21 E7 03            LD    HL,999
3200             L1333:
3200 CD 96 21            CALL  writeLineHL
3203             L1334:
3203                     ;;test15.j(195)   if (b2 ^ (0x10 + 0x0C) == 0x1B) println (111); else println (999);
3203             L1335:
3203 3A 01 50            LD    A,(05001H)
3206             L1336:
3206 F5                  PUSH  AF
3207 3E 10               LD    A,16
3209             L1337:
3209 C6 0C               ADD   A,12
320B             L1338:
320B C1                  POP   BC
320C A8                  XOR   A,B
320D             L1339:
320D D6 1B               SUB   A,27
320F             L1340:
320F C2 1A 32            JP    NZ,L1344
3212             L1341:
3212 3E 6F               LD    A,111
3214             L1342:
3214 CD BE 21            CALL  writeLineA
3217             L1343:
3217 C3 20 32            JP    L1348
321A             L1344:
321A 21 E7 03            LD    HL,999
321D             L1345:
321D CD 96 21            CALL  writeLineHL
3220             L1346:
3220                     ;;test15.j(196)   //var word/acc word
3220             L1347:
3220                     ;;test15.j(197)   if (w2 & 0x0100 + 0x022C == 0x0224) println (112); else println (999);
3220             L1348:
3220 2A 04 50            LD    HL,(05004H)
3223             L1349:
3223 E6                  PUSH  HL
3224 21 00 01            LD    HL,256
3227             L1350:
3227 11 2C 02            LD    DE,556
322A 19                  ADD   HL,DE
322B             L1351:
322B D1                  POP   DE
322C C5                  PUSH  BC
322D 47                  LD    B,A
322E 7C                  LD    A,H
322F A2                  AND   A,D
3230 67                  LD    H,A
3231 7D                  LD    A,L
3232 A3                  AND   A,E
3233 6F                  LD    L,A
3234 78                  LD    A,B
3235 C1                  POP   BC
3236             L1352:
3236 11 24 02            LD    DE,548
3239 B7                  OR    A
323A ED 52               SBC   HL,DE
323C             L1353:
323C C2 47 32            JP    NZ,L1357
323F             L1354:
323F 3E 70               LD    A,112
3241             L1355:
3241 CD BE 21            CALL  writeLineA
3244             L1356:
3244 C3 4D 32            JP    L1360
3247             L1357:
3247 21 E7 03            LD    HL,999
324A             L1358:
324A CD 96 21            CALL  writeLineHL
324D             L1359:
324D                     ;;test15.j(198)   if (w2 | 0x0100 + 0x022C == 0x133C) println (113); else println (999);
324D             L1360:
324D 2A 04 50            LD    HL,(05004H)
3250             L1361:
3250 E6                  PUSH  HL
3251 21 00 01            LD    HL,256
3254             L1362:
3254 11 2C 02            LD    DE,556
3257 19                  ADD   HL,DE
3258             L1363:
3258 D1                  POP   DE
3259 C5                  PUSH  BC
325A 47                  LD    B,A
325B 7C                  LD    A,H
325C B2                  OR    A,D
325D 67                  LD    H,A
325E 7D                  LD    A,L
325F B3                  OR    A,E
3260 6F                  LD    L,A
3261 78                  LD    A,B
3262 C1                  POP   BC
3263             L1364:
3263 11 3C 13            LD    DE,4924
3266 B7                  OR    A
3267 ED 52               SBC   HL,DE
3269             L1365:
3269 C2 74 32            JP    NZ,L1369
326C             L1366:
326C 3E 71               LD    A,113
326E             L1367:
326E CD BE 21            CALL  writeLineA
3271             L1368:
3271 C3 7A 32            JP    L1372
3274             L1369:
3274 21 E7 03            LD    HL,999
3277             L1370:
3277 CD 96 21            CALL  writeLineHL
327A             L1371:
327A                     ;;test15.j(199)   if (w2 ^ 0x0100 + 0x022C == 0x1118) println (114); else println (999);
327A             L1372:
327A 2A 04 50            LD    HL,(05004H)
327D             L1373:
327D E6                  PUSH  HL
327E 21 00 01            LD    HL,256
3281             L1374:
3281 11 2C 02            LD    DE,556
3284 19                  ADD   HL,DE
3285             L1375:
3285 D1                  POP   DE
3286 C5                  PUSH  BC
3287 47                  LD    B,A
3288 7C                  LD    A,H
3289 AA                  XOR   A,D
328A 67                  LD    H,A
328B 7D                  LD    A,L
328C AB                  XOR   A,E
328D 6F                  LD    L,A
328E 78                  LD    A,B
328F C1                  POP   BC
3290             L1376:
3290 11 18 11            LD    DE,4376
3293 B7                  OR    A
3294 ED 52               SBC   HL,DE
3296             L1377:
3296 C2 A1 32            JP    NZ,L1381
3299             L1378:
3299 3E 72               LD    A,114
329B             L1379:
329B CD BE 21            CALL  writeLineA
329E             L1380:
329E C3 A7 32            JP    L1385
32A1             L1381:
32A1 21 E7 03            LD    HL,999
32A4             L1382:
32A4 CD 96 21            CALL  writeLineHL
32A7             L1383:
32A7                     ;;test15.j(200)   //var byt/acc word
32A7             L1384:
32A7                     ;;test15.j(201)   if (b1 & 0x1000 + 0x0234 == 0x0014) println (115); else println (999);
32A7             L1385:
32A7 3A 00 50            LD    A,(05000H)
32AA             L1386:
32AA 21 00 10            LD    HL,4096
32AD             L1387:
32AD 11 34 02            LD    DE,564
32B0 19                  ADD   HL,DE
32B1             L1388:
32B1 A5                  AND   A,L
32B2 6F                  LD    L,A
32B3 26 00               LD    H,0
32B5             L1389:
32B5 3E 14               LD    A,20
32B7             L1390:
32B7 5F                  LD    E,A
32B8 16 00               LD    D,0
32BA EB                  EX    DE,HL
32BB B7                  OR    A
32BC ED 52               SBC   HL,DE
32BE             L1391:
32BE C2 C9 32            JP    NZ,L1395
32C1             L1392:
32C1 3E 73               LD    A,115
32C3             L1393:
32C3 CD BE 21            CALL  writeLineA
32C6             L1394:
32C6 C3 CF 32            JP    L1398
32C9             L1395:
32C9 21 E7 03            LD    HL,999
32CC             L1396:
32CC CD 96 21            CALL  writeLineHL
32CF             L1397:
32CF                     ;;test15.j(202)   if (b1 | 0x1000 + 0x0234 == 0x123C) println (116); else println (999);
32CF             L1398:
32CF 3A 00 50            LD    A,(05000H)
32D2             L1399:
32D2 21 00 10            LD    HL,4096
32D5             L1400:
32D5 11 34 02            LD    DE,564
32D8 19                  ADD   HL,DE
32D9             L1401:
32D9 B5                  OR    A,L
32DA 6F                  LD    L,A
32DB             L1402:
32DB 11 3C 12            LD    DE,4668
32DE B7                  OR    A
32DF ED 52               SBC   HL,DE
32E1             L1403:
32E1 C2 EC 32            JP    NZ,L1407
32E4             L1404:
32E4 3E 74               LD    A,116
32E6             L1405:
32E6 CD BE 21            CALL  writeLineA
32E9             L1406:
32E9 C3 F2 32            JP    L1410
32EC             L1407:
32EC 21 E7 03            LD    HL,999
32EF             L1408:
32EF CD 96 21            CALL  writeLineHL
32F2             L1409:
32F2                     ;;test15.j(203)   if (b1 ^ 0x1000 + 0x0234 == 0x1228) println (117); else println (999);
32F2             L1410:
32F2 3A 00 50            LD    A,(05000H)
32F5             L1411:
32F5 21 00 10            LD    HL,4096
32F8             L1412:
32F8 11 34 02            LD    DE,564
32FB 19                  ADD   HL,DE
32FC             L1413:
32FC AD                  XOR   A,L
32FD 6F                  LD    L,A
32FE             L1414:
32FE 11 28 12            LD    DE,4648
3301 B7                  OR    A
3302 ED 52               SBC   HL,DE
3304             L1415:
3304 C2 0F 33            JP    NZ,L1419
3307             L1416:
3307 3E 75               LD    A,117
3309             L1417:
3309 CD BE 21            CALL  writeLineA
330C             L1418:
330C C3 15 33            JP    L1423
330F             L1419:
330F 21 E7 03            LD    HL,999
3312             L1420:
3312 CD 96 21            CALL  writeLineHL
3315             L1421:
3315                     ;;test15.j(204)   //var word/acc byt
3315             L1422:
3315                     ;;test15.j(205)   if (w2 & 0x10 + 0x0C == 0x0014) println (118); else println (999);
3315             L1423:
3315 2A 04 50            LD    HL,(05004H)
3318             L1424:
3318 3E 10               LD    A,16
331A             L1425:
331A C6 0C               ADD   A,12
331C             L1426:
331C A5                  AND   A,L
331D 6F                  LD    L,A
331E 26 00               LD    H,0
3320             L1427:
3320 3E 14               LD    A,20
3322             L1428:
3322 5F                  LD    E,A
3323 16 00               LD    D,0
3325 EB                  EX    DE,HL
3326 B7                  OR    A
3327 ED 52               SBC   HL,DE
3329             L1429:
3329 C2 34 33            JP    NZ,L1433
332C             L1430:
332C 3E 76               LD    A,118
332E             L1431:
332E CD BE 21            CALL  writeLineA
3331             L1432:
3331 C3 3A 33            JP    L1436
3334             L1433:
3334 21 E7 03            LD    HL,999
3337             L1434:
3337 CD 96 21            CALL  writeLineHL
333A             L1435:
333A                     ;;test15.j(206)   if (w2 | 0x10 + 0x0C == 0x123C) println (119); else println (999);
333A             L1436:
333A 2A 04 50            LD    HL,(05004H)
333D             L1437:
333D 3E 10               LD    A,16
333F             L1438:
333F C6 0C               ADD   A,12
3341             L1439:
3341 B5                  OR    A,L
3342 6F                  LD    L,A
3343             L1440:
3343 11 3C 12            LD    DE,4668
3346 B7                  OR    A
3347 ED 52               SBC   HL,DE
3349             L1441:
3349 C2 54 33            JP    NZ,L1445
334C             L1442:
334C 3E 77               LD    A,119
334E             L1443:
334E CD BE 21            CALL  writeLineA
3351             L1444:
3351 C3 5A 33            JP    L1448
3354             L1445:
3354 21 E7 03            LD    HL,999
3357             L1446:
3357 CD 96 21            CALL  writeLineHL
335A             L1447:
335A                     ;;test15.j(207)   if (w2 ^ 0x10 + 0x0C == 0x1228) println (120); else println (999);
335A             L1448:
335A 2A 04 50            LD    HL,(05004H)
335D             L1449:
335D 3E 10               LD    A,16
335F             L1450:
335F C6 0C               ADD   A,12
3361             L1451:
3361 AD                  XOR   A,L
3362 6F                  LD    L,A
3363             L1452:
3363 11 28 12            LD    DE,4648
3366 B7                  OR    A
3367 ED 52               SBC   HL,DE
3369             L1453:
3369 C2 74 33            JP    NZ,L1457
336C             L1454:
336C 3E 78               LD    A,120
336E             L1455:
336E CD BE 21            CALL  writeLineA
3371             L1456:
3371 C3 7A 33            JP    L1464
3374             L1457:
3374 21 E7 03            LD    HL,999
3377             L1458:
3377 CD 96 21            CALL  writeLineHL
337A             L1459:
337A                     ;;test15.j(208) 
337A             L1460:
337A                     ;;test15.j(209)   //var/var
337A             L1461:
337A                     ;;test15.j(210)   //*******
337A             L1462:
337A                     ;;test15.j(211)   //var byte/var byte
337A             L1463:
337A                     ;;test15.j(212)   if (b2 & b1 == 0x04) println (121); else println (999);
337A             L1464:
337A 3A 01 50            LD    A,(05001H)
337D             L1465:
337D 47                  LD    B,A
337E 3A 00 50            LD    A,(05000H)
3381 A0                  AND   A,B
3382             L1466:
3382 D6 04               SUB   A,4
3384             L1467:
3384 C2 8F 33            JP    NZ,L1471
3387             L1468:
3387 3E 79               LD    A,121
3389             L1469:
3389 CD BE 21            CALL  writeLineA
338C             L1470:
338C C3 95 33            JP    L1474
338F             L1471:
338F 21 E7 03            LD    HL,999
3392             L1472:
3392 CD 96 21            CALL  writeLineHL
3395             L1473:
3395                     ;;test15.j(213)   if (b2 | b1 == 0x1F) println (122); else println (999);
3395             L1474:
3395 3A 01 50            LD    A,(05001H)
3398             L1475:
3398 47                  LD    B,A
3399 3A 00 50            LD    A,(05000H)
339C B0                  OR    A,B
339D             L1476:
339D D6 1F               SUB   A,31
339F             L1477:
339F C2 AA 33            JP    NZ,L1481
33A2             L1478:
33A2 3E 7A               LD    A,122
33A4             L1479:
33A4 CD BE 21            CALL  writeLineA
33A7             L1480:
33A7 C3 B0 33            JP    L1484
33AA             L1481:
33AA 21 E7 03            LD    HL,999
33AD             L1482:
33AD CD 96 21            CALL  writeLineHL
33B0             L1483:
33B0                     ;;test15.j(214)   if (b2 ^ b1 == 0x1B) println (123); else println (999);
33B0             L1484:
33B0 3A 01 50            LD    A,(05001H)
33B3             L1485:
33B3 47                  LD    B,A
33B4 3A 00 50            LD    A,(05000H)
33B7 A8                  XOR   A,B
33B8             L1486:
33B8 D6 1B               SUB   A,27
33BA             L1487:
33BA C2 C5 33            JP    NZ,L1491
33BD             L1488:
33BD 3E 7B               LD    A,123
33BF             L1489:
33BF CD BE 21            CALL  writeLineA
33C2             L1490:
33C2 C3 CB 33            JP    L1495
33C5             L1491:
33C5 21 E7 03            LD    HL,999
33C8             L1492:
33C8 CD 96 21            CALL  writeLineHL
33CB             L1493:
33CB                     ;;test15.j(215)   //var word/var word
33CB             L1494:
33CB                     ;;test15.j(216)   if (w2 & w1 == 0x0224) println (124); else println (999);
33CB             L1495:
33CB 2A 04 50            LD    HL,(05004H)
33CE             L1496:
33CE ED 5B 02 50         LD    DE,(05002H)
33D2 C5                  PUSH  BC
33D3 47                  LD    B,A
33D4 7C                  LD    A,H
33D5 A2                  AND   A,D
33D6 67                  LD    H,A
33D7 7D                  LD    A,L
33D8 A3                  AND   A,E
33D9 6F                  LD    L,A
33DA 78                  LD    A,B
33DB C1                  POP   BC
33DC             L1497:
33DC 11 24 02            LD    DE,548
33DF B7                  OR    A
33E0 ED 52               SBC   HL,DE
33E2             L1498:
33E2 C2 ED 33            JP    NZ,L1502
33E5             L1499:
33E5 3E 7C               LD    A,124
33E7             L1500:
33E7 CD BE 21            CALL  writeLineA
33EA             L1501:
33EA C3 F3 33            JP    L1505
33ED             L1502:
33ED 21 E7 03            LD    HL,999
33F0             L1503:
33F0 CD 96 21            CALL  writeLineHL
33F3             L1504:
33F3                     ;;test15.j(217)   if (w2 | w1 == 0x133C) println (125); else println (999);
33F3             L1505:
33F3 2A 04 50            LD    HL,(05004H)
33F6             L1506:
33F6 ED 5B 02 50         LD    DE,(05002H)
33FA C5                  PUSH  BC
33FB 47                  LD    B,A
33FC 7C                  LD    A,H
33FD B2                  OR    A,D
33FE 67                  LD    H,A
33FF 7D                  LD    A,L
3400 B3                  OR    A,E
3401 6F                  LD    L,A
3402 78                  LD    A,B
3403 C1                  POP   BC
3404             L1507:
3404 11 3C 13            LD    DE,4924
3407 B7                  OR    A
3408 ED 52               SBC   HL,DE
340A             L1508:
340A C2 15 34            JP    NZ,L1512
340D             L1509:
340D 3E 7D               LD    A,125
340F             L1510:
340F CD BE 21            CALL  writeLineA
3412             L1511:
3412 C3 1B 34            JP    L1515
3415             L1512:
3415 21 E7 03            LD    HL,999
3418             L1513:
3418 CD 96 21            CALL  writeLineHL
341B             L1514:
341B                     ;;test15.j(218)   if (w2 ^ w1 == 0x1118) println (126); else println (999);
341B             L1515:
341B 2A 04 50            LD    HL,(05004H)
341E             L1516:
341E ED 5B 02 50         LD    DE,(05002H)
3422 C5                  PUSH  BC
3423 47                  LD    B,A
3424 7C                  LD    A,H
3425 AA                  XOR   A,D
3426 67                  LD    H,A
3427 7D                  LD    A,L
3428 AB                  XOR   A,E
3429 6F                  LD    L,A
342A 78                  LD    A,B
342B C1                  POP   BC
342C             L1517:
342C 11 18 11            LD    DE,4376
342F B7                  OR    A
3430 ED 52               SBC   HL,DE
3432             L1518:
3432 C2 3D 34            JP    NZ,L1522
3435             L1519:
3435 3E 7E               LD    A,126
3437             L1520:
3437 CD BE 21            CALL  writeLineA
343A             L1521:
343A C3 43 34            JP    L1526
343D             L1522:
343D 21 E7 03            LD    HL,999
3440             L1523:
3440 CD 96 21            CALL  writeLineHL
3443             L1524:
3443                     ;;test15.j(219)   //var byt/var word
3443             L1525:
3443                     ;;test15.j(220)   if (b1 & w2 == 0x0014) println (127); else println (999);
3443             L1526:
3443 3A 00 50            LD    A,(05000H)
3446             L1527:
3446 6F                  LD    L,A
3447 26 00               LD    H,0
3449             L1528:
3449 ED 5B 04 50         LD    DE,(05004H)
344D C5                  PUSH  BC
344E 47                  LD    B,A
344F 7C                  LD    A,H
3450 A2                  AND   A,D
3451 67                  LD    H,A
3452 7D                  LD    A,L
3453 A3                  AND   A,E
3454 6F                  LD    L,A
3455 78                  LD    A,B
3456 C1                  POP   BC
3457             L1529:
3457 3E 14               LD    A,20
3459             L1530:
3459 5F                  LD    E,A
345A 16 00               LD    D,0
345C EB                  EX    DE,HL
345D B7                  OR    A
345E ED 52               SBC   HL,DE
3460             L1531:
3460 C2 6B 34            JP    NZ,L1535
3463             L1532:
3463 3E 7F               LD    A,127
3465             L1533:
3465 CD BE 21            CALL  writeLineA
3468             L1534:
3468 C3 71 34            JP    L1538
346B             L1535:
346B 21 E7 03            LD    HL,999
346E             L1536:
346E CD 96 21            CALL  writeLineHL
3471             L1537:
3471                     ;;test15.j(221)   if (b1 | w2 == 0x123C) println (128); else println (999);
3471             L1538:
3471 3A 00 50            LD    A,(05000H)
3474             L1539:
3474 6F                  LD    L,A
3475 26 00               LD    H,0
3477             L1540:
3477 ED 5B 04 50         LD    DE,(05004H)
347B C5                  PUSH  BC
347C 47                  LD    B,A
347D 7C                  LD    A,H
347E B2                  OR    A,D
347F 67                  LD    H,A
3480 7D                  LD    A,L
3481 B3                  OR    A,E
3482 6F                  LD    L,A
3483 78                  LD    A,B
3484 C1                  POP   BC
3485             L1541:
3485 11 3C 12            LD    DE,4668
3488 B7                  OR    A
3489 ED 52               SBC   HL,DE
348B             L1542:
348B C2 96 34            JP    NZ,L1546
348E             L1543:
348E 3E 80               LD    A,128
3490             L1544:
3490 CD BE 21            CALL  writeLineA
3493             L1545:
3493 C3 9C 34            JP    L1549
3496             L1546:
3496 21 E7 03            LD    HL,999
3499             L1547:
3499 CD 96 21            CALL  writeLineHL
349C             L1548:
349C                     ;;test15.j(222)   if (b1 ^ w2 == 0x1228) println (129); else println (999);
349C             L1549:
349C 3A 00 50            LD    A,(05000H)
349F             L1550:
349F 6F                  LD    L,A
34A0 26 00               LD    H,0
34A2             L1551:
34A2 ED 5B 04 50         LD    DE,(05004H)
34A6 C5                  PUSH  BC
34A7 47                  LD    B,A
34A8 7C                  LD    A,H
34A9 AA                  XOR   A,D
34AA 67                  LD    H,A
34AB 7D                  LD    A,L
34AC AB                  XOR   A,E
34AD 6F                  LD    L,A
34AE 78                  LD    A,B
34AF C1                  POP   BC
34B0             L1552:
34B0 11 28 12            LD    DE,4648
34B3 B7                  OR    A
34B4 ED 52               SBC   HL,DE
34B6             L1553:
34B6 C2 C1 34            JP    NZ,L1557
34B9             L1554:
34B9 3E 81               LD    A,129
34BB             L1555:
34BB CD BE 21            CALL  writeLineA
34BE             L1556:
34BE C3 C7 34            JP    L1561
34C1             L1557:
34C1 21 E7 03            LD    HL,999
34C4             L1558:
34C4 CD 96 21            CALL  writeLineHL
34C7             L1559:
34C7                     ;;test15.j(223)   //var word/var byt
34C7             L1560:
34C7                     ;;test15.j(224)   if (w2 & b1 == 0x0014) println (130); else println (999);
34C7             L1561:
34C7 2A 04 50            LD    HL,(05004H)
34CA             L1562:
34CA ED 5B 00 50         LD    DE,(05000H)
34CE C5                  PUSH  BC
34CF 47                  LD    B,A
34D0 7C                  LD    A,H
34D1 A2                  AND   A,D
34D2 67                  LD    H,A
34D3 7D                  LD    A,L
34D4 A3                  AND   A,E
34D5 6F                  LD    L,A
34D6 78                  LD    A,B
34D7 C1                  POP   BC
34D8             L1563:
34D8 3E 14               LD    A,20
34DA             L1564:
34DA 5F                  LD    E,A
34DB 16 00               LD    D,0
34DD EB                  EX    DE,HL
34DE B7                  OR    A
34DF ED 52               SBC   HL,DE
34E1             L1565:
34E1 C2 EC 34            JP    NZ,L1569
34E4             L1566:
34E4 3E 82               LD    A,130
34E6             L1567:
34E6 CD BE 21            CALL  writeLineA
34E9             L1568:
34E9 C3 F2 34            JP    L1572
34EC             L1569:
34EC 21 E7 03            LD    HL,999
34EF             L1570:
34EF CD 96 21            CALL  writeLineHL
34F2             L1571:
34F2                     ;;test15.j(225)   if (w2 | b1 == 0x123C) println (131); else println (999);
34F2             L1572:
34F2 2A 04 50            LD    HL,(05004H)
34F5             L1573:
34F5 ED 5B 00 50         LD    DE,(05000H)
34F9 C5                  PUSH  BC
34FA 47                  LD    B,A
34FB 7C                  LD    A,H
34FC B2                  OR    A,D
34FD 67                  LD    H,A
34FE 7D                  LD    A,L
34FF B3                  OR    A,E
3500 6F                  LD    L,A
3501 78                  LD    A,B
3502 C1                  POP   BC
3503             L1574:
3503 11 3C 12            LD    DE,4668
3506 B7                  OR    A
3507 ED 52               SBC   HL,DE
3509             L1575:
3509 C2 14 35            JP    NZ,L1579
350C             L1576:
350C 3E 83               LD    A,131
350E             L1577:
350E CD BE 21            CALL  writeLineA
3511             L1578:
3511 C3 1A 35            JP    L1582
3514             L1579:
3514 21 E7 03            LD    HL,999
3517             L1580:
3517 CD 96 21            CALL  writeLineHL
351A             L1581:
351A                     ;;test15.j(226)   if (w2 ^ b1 == 0x1228) println (132); else println (999);
351A             L1582:
351A 2A 04 50            LD    HL,(05004H)
351D             L1583:
351D ED 5B 00 50         LD    DE,(05000H)
3521 C5                  PUSH  BC
3522 47                  LD    B,A
3523 7C                  LD    A,H
3524 AA                  XOR   A,D
3525 67                  LD    H,A
3526 7D                  LD    A,L
3527 AB                  XOR   A,E
3528 6F                  LD    L,A
3529 78                  LD    A,B
352A C1                  POP   BC
352B             L1584:
352B 11 28 12            LD    DE,4648
352E B7                  OR    A
352F ED 52               SBC   HL,DE
3531             L1585:
3531 C2 3C 35            JP    NZ,L1589
3534             L1586:
3534 3E 84               LD    A,132
3536             L1587:
3536 CD BE 21            CALL  writeLineA
3539             L1588:
3539 C3 42 35            JP    L1596
353C             L1589:
353C 21 E7 03            LD    HL,999
353F             L1590:
353F CD 96 21            CALL  writeLineHL
3542             L1591:
3542                     ;;test15.j(227) 
3542             L1592:
3542                     ;;test15.j(228)   //var/final var
3542             L1593:
3542                     ;;test15.j(229)   //*************
3542             L1594:
3542                     ;;test15.j(230)   //var byte/final var byte
3542             L1595:
3542                     ;;test15.j(231)   if (b2 & fb1 == 0x04) println (133); else println (999);
3542             L1596:
3542 3A 01 50            LD    A,(05001H)
3545             L1597:
3545 E6 1C               AND   A,28
3547             L1598:
3547 D6 04               SUB   A,4
3549             L1599:
3549 C2 54 35            JP    NZ,L1603
354C             L1600:
354C 3E 85               LD    A,133
354E             L1601:
354E CD BE 21            CALL  writeLineA
3551             L1602:
3551 C3 5A 35            JP    L1606
3554             L1603:
3554 21 E7 03            LD    HL,999
3557             L1604:
3557 CD 96 21            CALL  writeLineHL
355A             L1605:
355A                     ;;test15.j(232)   if (b2 | fb1 == 0x1F) println (134); else println (999);
355A             L1606:
355A 3A 01 50            LD    A,(05001H)
355D             L1607:
355D F6 1C               OR    A,28
355F             L1608:
355F D6 1F               SUB   A,31
3561             L1609:
3561 C2 6C 35            JP    NZ,L1613
3564             L1610:
3564 3E 86               LD    A,134
3566             L1611:
3566 CD BE 21            CALL  writeLineA
3569             L1612:
3569 C3 72 35            JP    L1616
356C             L1613:
356C 21 E7 03            LD    HL,999
356F             L1614:
356F CD 96 21            CALL  writeLineHL
3572             L1615:
3572                     ;;test15.j(233)   if (b2 ^ fb1 == 0x1B) println (135); else println (999);
3572             L1616:
3572 3A 01 50            LD    A,(05001H)
3575             L1617:
3575 EE 1C               XOR   A,28
3577             L1618:
3577 D6 1B               SUB   A,27
3579             L1619:
3579 C2 84 35            JP    NZ,L1623
357C             L1620:
357C 3E 87               LD    A,135
357E             L1621:
357E CD BE 21            CALL  writeLineA
3581             L1622:
3581 C3 8A 35            JP    L1627
3584             L1623:
3584 21 E7 03            LD    HL,999
3587             L1624:
3587 CD 96 21            CALL  writeLineHL
358A             L1625:
358A                     ;;test15.j(234)   //var word/final var word
358A             L1626:
358A                     ;;test15.j(235)   if (w2 & fw1 == 0x0224) println (136); else println (999);
358A             L1627:
358A 2A 04 50            LD    HL,(05004H)
358D             L1628:
358D 11 2C 03            LD    DE,812
3590 C5                  PUSH  BC
3591 47                  LD    B,A
3592 7C                  LD    A,H
3593 A2                  AND   A,D
3594 67                  LD    H,A
3595 7D                  LD    A,L
3596 A3                  AND   A,E
3597 6F                  LD    L,A
3598 78                  LD    A,B
3599 C1                  POP   BC
359A             L1629:
359A 11 24 02            LD    DE,548
359D B7                  OR    A
359E ED 52               SBC   HL,DE
35A0             L1630:
35A0 C2 AB 35            JP    NZ,L1634
35A3             L1631:
35A3 3E 88               LD    A,136
35A5             L1632:
35A5 CD BE 21            CALL  writeLineA
35A8             L1633:
35A8 C3 B1 35            JP    L1637
35AB             L1634:
35AB 21 E7 03            LD    HL,999
35AE             L1635:
35AE CD 96 21            CALL  writeLineHL
35B1             L1636:
35B1                     ;;test15.j(236)   if (w2 | fw1 == 0x133C) println (137); else println (999);
35B1             L1637:
35B1 2A 04 50            LD    HL,(05004H)
35B4             L1638:
35B4 11 2C 03            LD    DE,812
35B7 C5                  PUSH  BC
35B8 47                  LD    B,A
35B9 7C                  LD    A,H
35BA B2                  OR    A,D
35BB 67                  LD    H,A
35BC 7D                  LD    A,L
35BD B3                  OR    A,E
35BE 6F                  LD    L,A
35BF 78                  LD    A,B
35C0 C1                  POP   BC
35C1             L1639:
35C1 11 3C 13            LD    DE,4924
35C4 B7                  OR    A
35C5 ED 52               SBC   HL,DE
35C7             L1640:
35C7 C2 D2 35            JP    NZ,L1644
35CA             L1641:
35CA 3E 89               LD    A,137
35CC             L1642:
35CC CD BE 21            CALL  writeLineA
35CF             L1643:
35CF C3 D8 35            JP    L1647
35D2             L1644:
35D2 21 E7 03            LD    HL,999
35D5             L1645:
35D5 CD 96 21            CALL  writeLineHL
35D8             L1646:
35D8                     ;;test15.j(237)   if (w2 ^ fw1 == 0x1118) println (138); else println (999);
35D8             L1647:
35D8 2A 04 50            LD    HL,(05004H)
35DB             L1648:
35DB 11 2C 03            LD    DE,812
35DE C5                  PUSH  BC
35DF 47                  LD    B,A
35E0 7C                  LD    A,H
35E1 AA                  XOR   A,D
35E2 67                  LD    H,A
35E3 7D                  LD    A,L
35E4 AB                  XOR   A,E
35E5 6F                  LD    L,A
35E6 78                  LD    A,B
35E7 C1                  POP   BC
35E8             L1649:
35E8 11 18 11            LD    DE,4376
35EB B7                  OR    A
35EC ED 52               SBC   HL,DE
35EE             L1650:
35EE C2 F9 35            JP    NZ,L1654
35F1             L1651:
35F1 3E 8A               LD    A,138
35F3             L1652:
35F3 CD BE 21            CALL  writeLineA
35F6             L1653:
35F6 C3 FF 35            JP    L1658
35F9             L1654:
35F9 21 E7 03            LD    HL,999
35FC             L1655:
35FC CD 96 21            CALL  writeLineHL
35FF             L1656:
35FF                     ;;test15.j(238)   //var byt/final var word
35FF             L1657:
35FF                     ;;test15.j(239)   if (b1 & fw2 == 0x0014) println (139); else println (999);
35FF             L1658:
35FF 3A 00 50            LD    A,(05000H)
3602             L1659:
3602 6F                  LD    L,A
3603 26 00               LD    H,0
3605             L1660:
3605 11 34 12            LD    DE,4660
3608 C5                  PUSH  BC
3609 47                  LD    B,A
360A 7C                  LD    A,H
360B A2                  AND   A,D
360C 67                  LD    H,A
360D 7D                  LD    A,L
360E A3                  AND   A,E
360F 6F                  LD    L,A
3610 78                  LD    A,B
3611 C1                  POP   BC
3612             L1661:
3612 3E 14               LD    A,20
3614             L1662:
3614 5F                  LD    E,A
3615 16 00               LD    D,0
3617 EB                  EX    DE,HL
3618 B7                  OR    A
3619 ED 52               SBC   HL,DE
361B             L1663:
361B C2 26 36            JP    NZ,L1667
361E             L1664:
361E 3E 8B               LD    A,139
3620             L1665:
3620 CD BE 21            CALL  writeLineA
3623             L1666:
3623 C3 2C 36            JP    L1670
3626             L1667:
3626 21 E7 03            LD    HL,999
3629             L1668:
3629 CD 96 21            CALL  writeLineHL
362C             L1669:
362C                     ;;test15.j(240)   if (b1 | fw2 == 0x123C) println (140); else println (999);
362C             L1670:
362C 3A 00 50            LD    A,(05000H)
362F             L1671:
362F 6F                  LD    L,A
3630 26 00               LD    H,0
3632             L1672:
3632 11 34 12            LD    DE,4660
3635 C5                  PUSH  BC
3636 47                  LD    B,A
3637 7C                  LD    A,H
3638 B2                  OR    A,D
3639 67                  LD    H,A
363A 7D                  LD    A,L
363B B3                  OR    A,E
363C 6F                  LD    L,A
363D 78                  LD    A,B
363E C1                  POP   BC
363F             L1673:
363F 11 3C 12            LD    DE,4668
3642 B7                  OR    A
3643 ED 52               SBC   HL,DE
3645             L1674:
3645 C2 50 36            JP    NZ,L1678
3648             L1675:
3648 3E 8C               LD    A,140
364A             L1676:
364A CD BE 21            CALL  writeLineA
364D             L1677:
364D C3 56 36            JP    L1681
3650             L1678:
3650 21 E7 03            LD    HL,999
3653             L1679:
3653 CD 96 21            CALL  writeLineHL
3656             L1680:
3656                     ;;test15.j(241)   if (b1 ^ fw2 == 0x1228) println (141); else println (999);
3656             L1681:
3656 3A 00 50            LD    A,(05000H)
3659             L1682:
3659 6F                  LD    L,A
365A 26 00               LD    H,0
365C             L1683:
365C 11 34 12            LD    DE,4660
365F C5                  PUSH  BC
3660 47                  LD    B,A
3661 7C                  LD    A,H
3662 AA                  XOR   A,D
3663 67                  LD    H,A
3664 7D                  LD    A,L
3665 AB                  XOR   A,E
3666 6F                  LD    L,A
3667 78                  LD    A,B
3668 C1                  POP   BC
3669             L1684:
3669 11 28 12            LD    DE,4648
366C B7                  OR    A
366D ED 52               SBC   HL,DE
366F             L1685:
366F C2 7A 36            JP    NZ,L1689
3672             L1686:
3672 3E 8D               LD    A,141
3674             L1687:
3674 CD BE 21            CALL  writeLineA
3677             L1688:
3677 C3 80 36            JP    L1693
367A             L1689:
367A 21 E7 03            LD    HL,999
367D             L1690:
367D CD 96 21            CALL  writeLineHL
3680             L1691:
3680                     ;;test15.j(242)   //var word/final var byt
3680             L1692:
3680                     ;;test15.j(243)   if (w2 & fb1 == 0x0014) println (142); else println (999);
3680             L1693:
3680 2A 04 50            LD    HL,(05004H)
3683             L1694:
3683 11 1C 00            LD    DE,28
3686 C5                  PUSH  BC
3687 47                  LD    B,A
3688 7C                  LD    A,H
3689 A2                  AND   A,D
368A 67                  LD    H,A
368B 7D                  LD    A,L
368C A3                  AND   A,E
368D 6F                  LD    L,A
368E 78                  LD    A,B
368F C1                  POP   BC
3690             L1695:
3690 3E 14               LD    A,20
3692             L1696:
3692 5F                  LD    E,A
3693 16 00               LD    D,0
3695 EB                  EX    DE,HL
3696 B7                  OR    A
3697 ED 52               SBC   HL,DE
3699             L1697:
3699 C2 A4 36            JP    NZ,L1701
369C             L1698:
369C 3E 8E               LD    A,142
369E             L1699:
369E CD BE 21            CALL  writeLineA
36A1             L1700:
36A1 C3 AA 36            JP    L1704
36A4             L1701:
36A4 21 E7 03            LD    HL,999
36A7             L1702:
36A7 CD 96 21            CALL  writeLineHL
36AA             L1703:
36AA                     ;;test15.j(244)   if (w2 | fb1 == 0x123C) println (143); else println (999);
36AA             L1704:
36AA 2A 04 50            LD    HL,(05004H)
36AD             L1705:
36AD 11 1C 00            LD    DE,28
36B0 C5                  PUSH  BC
36B1 47                  LD    B,A
36B2 7C                  LD    A,H
36B3 B2                  OR    A,D
36B4 67                  LD    H,A
36B5 7D                  LD    A,L
36B6 B3                  OR    A,E
36B7 6F                  LD    L,A
36B8 78                  LD    A,B
36B9 C1                  POP   BC
36BA             L1706:
36BA 11 3C 12            LD    DE,4668
36BD B7                  OR    A
36BE ED 52               SBC   HL,DE
36C0             L1707:
36C0 C2 CB 36            JP    NZ,L1711
36C3             L1708:
36C3 3E 8F               LD    A,143
36C5             L1709:
36C5 CD BE 21            CALL  writeLineA
36C8             L1710:
36C8 C3 D1 36            JP    L1714
36CB             L1711:
36CB 21 E7 03            LD    HL,999
36CE             L1712:
36CE CD 96 21            CALL  writeLineHL
36D1             L1713:
36D1                     ;;test15.j(245)   if (w2 ^ fb1 == 0x1228) println (144); else println (999);
36D1             L1714:
36D1 2A 04 50            LD    HL,(05004H)
36D4             L1715:
36D4 11 1C 00            LD    DE,28
36D7 C5                  PUSH  BC
36D8 47                  LD    B,A
36D9 7C                  LD    A,H
36DA AA                  XOR   A,D
36DB 67                  LD    H,A
36DC 7D                  LD    A,L
36DD AB                  XOR   A,E
36DE 6F                  LD    L,A
36DF 78                  LD    A,B
36E0 C1                  POP   BC
36E1             L1716:
36E1 11 28 12            LD    DE,4648
36E4 B7                  OR    A
36E5 ED 52               SBC   HL,DE
36E7             L1717:
36E7 C2 F2 36            JP    NZ,L1721
36EA             L1718:
36EA 3E 90               LD    A,144
36EC             L1719:
36EC CD BE 21            CALL  writeLineA
36EF             L1720:
36EF C3 F8 36            JP    L1728
36F2             L1721:
36F2 21 E7 03            LD    HL,999
36F5             L1722:
36F5 CD 96 21            CALL  writeLineHL
36F8             L1723:
36F8                     ;;test15.j(246) 
36F8             L1724:
36F8                     ;;test15.j(247)   //final var/constant
36F8             L1725:
36F8                     ;;test15.j(248)   //******************
36F8             L1726:
36F8                     ;;test15.j(249)   //final var byte/constant byte
36F8             L1727:
36F8                     ;;test15.j(250)   if (b2 & 0x1C == 0x04) println (145); else println (999);
36F8             L1728:
36F8 3A 01 50            LD    A,(05001H)
36FB             L1729:
36FB E6 1C               AND   A,28
36FD             L1730:
36FD D6 04               SUB   A,4
36FF             L1731:
36FF C2 0A 37            JP    NZ,L1735
3702             L1732:
3702 3E 91               LD    A,145
3704             L1733:
3704 CD BE 21            CALL  writeLineA
3707             L1734:
3707 C3 10 37            JP    L1738
370A             L1735:
370A 21 E7 03            LD    HL,999
370D             L1736:
370D CD 96 21            CALL  writeLineHL
3710             L1737:
3710                     ;;test15.j(251)   if (b2 | 0x1C == 0x1F) println (146); else println (999);
3710             L1738:
3710 3A 01 50            LD    A,(05001H)
3713             L1739:
3713 F6 1C               OR    A,28
3715             L1740:
3715 D6 1F               SUB   A,31
3717             L1741:
3717 C2 22 37            JP    NZ,L1745
371A             L1742:
371A 3E 92               LD    A,146
371C             L1743:
371C CD BE 21            CALL  writeLineA
371F             L1744:
371F C3 28 37            JP    L1748
3722             L1745:
3722 21 E7 03            LD    HL,999
3725             L1746:
3725 CD 96 21            CALL  writeLineHL
3728             L1747:
3728                     ;;test15.j(252)   if (b2 ^ 0x1C == 0x1B) println (147); else println (999);
3728             L1748:
3728 3A 01 50            LD    A,(05001H)
372B             L1749:
372B EE 1C               XOR   A,28
372D             L1750:
372D D6 1B               SUB   A,27
372F             L1751:
372F C2 3A 37            JP    NZ,L1755
3732             L1752:
3732 3E 93               LD    A,147
3734             L1753:
3734 CD BE 21            CALL  writeLineA
3737             L1754:
3737 C3 40 37            JP    L1759
373A             L1755:
373A 21 E7 03            LD    HL,999
373D             L1756:
373D CD 96 21            CALL  writeLineHL
3740             L1757:
3740                     ;;test15.j(253)   //final var word/constant word
3740             L1758:
3740                     ;;test15.j(254)   if (w2 & 0x032C == 0x0224) println (148); else println (999);
3740             L1759:
3740 2A 04 50            LD    HL,(05004H)
3743             L1760:
3743 11 2C 03            LD    DE,812
3746 C5                  PUSH  BC
3747 47                  LD    B,A
3748 7C                  LD    A,H
3749 A2                  AND   A,D
374A 67                  LD    H,A
374B 7D                  LD    A,L
374C A3                  AND   A,E
374D 6F                  LD    L,A
374E 78                  LD    A,B
374F C1                  POP   BC
3750             L1761:
3750 11 24 02            LD    DE,548
3753 B7                  OR    A
3754 ED 52               SBC   HL,DE
3756             L1762:
3756 C2 61 37            JP    NZ,L1766
3759             L1763:
3759 3E 94               LD    A,148
375B             L1764:
375B CD BE 21            CALL  writeLineA
375E             L1765:
375E C3 67 37            JP    L1769
3761             L1766:
3761 21 E7 03            LD    HL,999
3764             L1767:
3764 CD 96 21            CALL  writeLineHL
3767             L1768:
3767                     ;;test15.j(255)   if (w2 | 0x032C == 0x133C) println (149); else println (999);
3767             L1769:
3767 2A 04 50            LD    HL,(05004H)
376A             L1770:
376A 11 2C 03            LD    DE,812
376D C5                  PUSH  BC
376E 47                  LD    B,A
376F 7C                  LD    A,H
3770 B2                  OR    A,D
3771 67                  LD    H,A
3772 7D                  LD    A,L
3773 B3                  OR    A,E
3774 6F                  LD    L,A
3775 78                  LD    A,B
3776 C1                  POP   BC
3777             L1771:
3777 11 3C 13            LD    DE,4924
377A B7                  OR    A
377B ED 52               SBC   HL,DE
377D             L1772:
377D C2 88 37            JP    NZ,L1776
3780             L1773:
3780 3E 95               LD    A,149
3782             L1774:
3782 CD BE 21            CALL  writeLineA
3785             L1775:
3785 C3 8E 37            JP    L1779
3788             L1776:
3788 21 E7 03            LD    HL,999
378B             L1777:
378B CD 96 21            CALL  writeLineHL
378E             L1778:
378E                     ;;test15.j(256)   if (w2 ^ 0x032C == 0x1118) println (150); else println (999);
378E             L1779:
378E 2A 04 50            LD    HL,(05004H)
3791             L1780:
3791 11 2C 03            LD    DE,812
3794 C5                  PUSH  BC
3795 47                  LD    B,A
3796 7C                  LD    A,H
3797 AA                  XOR   A,D
3798 67                  LD    H,A
3799 7D                  LD    A,L
379A AB                  XOR   A,E
379B 6F                  LD    L,A
379C 78                  LD    A,B
379D C1                  POP   BC
379E             L1781:
379E 11 18 11            LD    DE,4376
37A1 B7                  OR    A
37A2 ED 52               SBC   HL,DE
37A4             L1782:
37A4 C2 AF 37            JP    NZ,L1786
37A7             L1783:
37A7 3E 96               LD    A,150
37A9             L1784:
37A9 CD BE 21            CALL  writeLineA
37AC             L1785:
37AC C3 B5 37            JP    L1790
37AF             L1786:
37AF 21 E7 03            LD    HL,999
37B2             L1787:
37B2 CD 96 21            CALL  writeLineHL
37B5             L1788:
37B5                     ;;test15.j(257)   //final var byt/constant word
37B5             L1789:
37B5                     ;;test15.j(258)   if (b1 & 0x1234 == 0x0014) println (151); else println (999);
37B5             L1790:
37B5 3A 00 50            LD    A,(05000H)
37B8             L1791:
37B8 6F                  LD    L,A
37B9 26 00               LD    H,0
37BB             L1792:
37BB 11 34 12            LD    DE,4660
37BE C5                  PUSH  BC
37BF 47                  LD    B,A
37C0 7C                  LD    A,H
37C1 A2                  AND   A,D
37C2 67                  LD    H,A
37C3 7D                  LD    A,L
37C4 A3                  AND   A,E
37C5 6F                  LD    L,A
37C6 78                  LD    A,B
37C7 C1                  POP   BC
37C8             L1793:
37C8 3E 14               LD    A,20
37CA             L1794:
37CA 5F                  LD    E,A
37CB 16 00               LD    D,0
37CD EB                  EX    DE,HL
37CE B7                  OR    A
37CF ED 52               SBC   HL,DE
37D1             L1795:
37D1 C2 DC 37            JP    NZ,L1799
37D4             L1796:
37D4 3E 97               LD    A,151
37D6             L1797:
37D6 CD BE 21            CALL  writeLineA
37D9             L1798:
37D9 C3 E2 37            JP    L1802
37DC             L1799:
37DC 21 E7 03            LD    HL,999
37DF             L1800:
37DF CD 96 21            CALL  writeLineHL
37E2             L1801:
37E2                     ;;test15.j(259)   if (b1 | 0x1234 == 0x123C) println (152); else println (999);
37E2             L1802:
37E2 3A 00 50            LD    A,(05000H)
37E5             L1803:
37E5 6F                  LD    L,A
37E6 26 00               LD    H,0
37E8             L1804:
37E8 11 34 12            LD    DE,4660
37EB C5                  PUSH  BC
37EC 47                  LD    B,A
37ED 7C                  LD    A,H
37EE B2                  OR    A,D
37EF 67                  LD    H,A
37F0 7D                  LD    A,L
37F1 B3                  OR    A,E
37F2 6F                  LD    L,A
37F3 78                  LD    A,B
37F4 C1                  POP   BC
37F5             L1805:
37F5 11 3C 12            LD    DE,4668
37F8 B7                  OR    A
37F9 ED 52               SBC   HL,DE
37FB             L1806:
37FB C2 06 38            JP    NZ,L1810
37FE             L1807:
37FE 3E 98               LD    A,152
3800             L1808:
3800 CD BE 21            CALL  writeLineA
3803             L1809:
3803 C3 0C 38            JP    L1813
3806             L1810:
3806 21 E7 03            LD    HL,999
3809             L1811:
3809 CD 96 21            CALL  writeLineHL
380C             L1812:
380C                     ;;test15.j(260)   if (b1 ^ 0x1234 == 0x1228) println (153); else println (999);
380C             L1813:
380C 3A 00 50            LD    A,(05000H)
380F             L1814:
380F 6F                  LD    L,A
3810 26 00               LD    H,0
3812             L1815:
3812 11 34 12            LD    DE,4660
3815 C5                  PUSH  BC
3816 47                  LD    B,A
3817 7C                  LD    A,H
3818 AA                  XOR   A,D
3819 67                  LD    H,A
381A 7D                  LD    A,L
381B AB                  XOR   A,E
381C 6F                  LD    L,A
381D 78                  LD    A,B
381E C1                  POP   BC
381F             L1816:
381F 11 28 12            LD    DE,4648
3822 B7                  OR    A
3823 ED 52               SBC   HL,DE
3825             L1817:
3825 C2 30 38            JP    NZ,L1821
3828             L1818:
3828 3E 99               LD    A,153
382A             L1819:
382A CD BE 21            CALL  writeLineA
382D             L1820:
382D C3 36 38            JP    L1825
3830             L1821:
3830 21 E7 03            LD    HL,999
3833             L1822:
3833 CD 96 21            CALL  writeLineHL
3836             L1823:
3836                     ;;test15.j(261)   //final var word/constant byt
3836             L1824:
3836                     ;;test15.j(262)   if (w2 & 0x1C == 0x0014) println (154); else println (999);
3836             L1825:
3836 2A 04 50            LD    HL,(05004H)
3839             L1826:
3839 11 1C 00            LD    DE,28
383C C5                  PUSH  BC
383D 47                  LD    B,A
383E 7C                  LD    A,H
383F A2                  AND   A,D
3840 67                  LD    H,A
3841 7D                  LD    A,L
3842 A3                  AND   A,E
3843 6F                  LD    L,A
3844 78                  LD    A,B
3845 C1                  POP   BC
3846             L1827:
3846 3E 14               LD    A,20
3848             L1828:
3848 5F                  LD    E,A
3849 16 00               LD    D,0
384B EB                  EX    DE,HL
384C B7                  OR    A
384D ED 52               SBC   HL,DE
384F             L1829:
384F C2 5A 38            JP    NZ,L1833
3852             L1830:
3852 3E 9A               LD    A,154
3854             L1831:
3854 CD BE 21            CALL  writeLineA
3857             L1832:
3857 C3 60 38            JP    L1836
385A             L1833:
385A 21 E7 03            LD    HL,999
385D             L1834:
385D CD 96 21            CALL  writeLineHL
3860             L1835:
3860                     ;;test15.j(263)   if (w2 | 0x1C == 0x123C) println (155); else println (999);
3860             L1836:
3860 2A 04 50            LD    HL,(05004H)
3863             L1837:
3863 11 1C 00            LD    DE,28
3866 C5                  PUSH  BC
3867 47                  LD    B,A
3868 7C                  LD    A,H
3869 B2                  OR    A,D
386A 67                  LD    H,A
386B 7D                  LD    A,L
386C B3                  OR    A,E
386D 6F                  LD    L,A
386E 78                  LD    A,B
386F C1                  POP   BC
3870             L1838:
3870 11 3C 12            LD    DE,4668
3873 B7                  OR    A
3874 ED 52               SBC   HL,DE
3876             L1839:
3876 C2 81 38            JP    NZ,L1843
3879             L1840:
3879 3E 9B               LD    A,155
387B             L1841:
387B CD BE 21            CALL  writeLineA
387E             L1842:
387E C3 87 38            JP    L1846
3881             L1843:
3881 21 E7 03            LD    HL,999
3884             L1844:
3884 CD 96 21            CALL  writeLineHL
3887             L1845:
3887                     ;;test15.j(264)   if (w2 ^ 0x1C == 0x1228) println (156); else println (999);
3887             L1846:
3887 2A 04 50            LD    HL,(05004H)
388A             L1847:
388A 11 1C 00            LD    DE,28
388D C5                  PUSH  BC
388E 47                  LD    B,A
388F 7C                  LD    A,H
3890 AA                  XOR   A,D
3891 67                  LD    H,A
3892 7D                  LD    A,L
3893 AB                  XOR   A,E
3894 6F                  LD    L,A
3895 78                  LD    A,B
3896 C1                  POP   BC
3897             L1848:
3897 11 28 12            LD    DE,4648
389A B7                  OR    A
389B ED 52               SBC   HL,DE
389D             L1849:
389D C2 A8 38            JP    NZ,L1853
38A0             L1850:
38A0 3E 9C               LD    A,156
38A2             L1851:
38A2 CD BE 21            CALL  writeLineA
38A5             L1852:
38A5 C3 AE 38            JP    L1860
38A8             L1853:
38A8 21 E7 03            LD    HL,999
38AB             L1854:
38AB CD 96 21            CALL  writeLineHL
38AE             L1855:
38AE                     ;;test15.j(265) 
38AE             L1856:
38AE                     ;;test15.j(266)   //final var/acc
38AE             L1857:
38AE                     ;;test15.j(267)   //*************
38AE             L1858:
38AE                     ;;test15.j(268)   //final var byte/acc byte
38AE             L1859:
38AE                     ;;test15.j(269)   if (b2 & (0x10 + 0x0C) == 0x04) println (157); else println (999);
38AE             L1860:
38AE 3A 01 50            LD    A,(05001H)
38B1             L1861:
38B1 F5                  PUSH  AF
38B2 3E 10               LD    A,16
38B4             L1862:
38B4 C6 0C               ADD   A,12
38B6             L1863:
38B6 C1                  POP   BC
38B7 A0                  AND   A,B
38B8             L1864:
38B8 D6 04               SUB   A,4
38BA             L1865:
38BA C2 C5 38            JP    NZ,L1869
38BD             L1866:
38BD 3E 9D               LD    A,157
38BF             L1867:
38BF CD BE 21            CALL  writeLineA
38C2             L1868:
38C2 C3 CB 38            JP    L1872
38C5             L1869:
38C5 21 E7 03            LD    HL,999
38C8             L1870:
38C8 CD 96 21            CALL  writeLineHL
38CB             L1871:
38CB                     ;;test15.j(270)   if (b2 | (0x10 + 0x0C) == 0x1F) println (158); else println (999);
38CB             L1872:
38CB 3A 01 50            LD    A,(05001H)
38CE             L1873:
38CE F5                  PUSH  AF
38CF 3E 10               LD    A,16
38D1             L1874:
38D1 C6 0C               ADD   A,12
38D3             L1875:
38D3 C1                  POP   BC
38D4 B0                  OR    A,B
38D5             L1876:
38D5 D6 1F               SUB   A,31
38D7             L1877:
38D7 C2 E2 38            JP    NZ,L1881
38DA             L1878:
38DA 3E 9E               LD    A,158
38DC             L1879:
38DC CD BE 21            CALL  writeLineA
38DF             L1880:
38DF C3 E8 38            JP    L1884
38E2             L1881:
38E2 21 E7 03            LD    HL,999
38E5             L1882:
38E5 CD 96 21            CALL  writeLineHL
38E8             L1883:
38E8                     ;;test15.j(271)   if (b2 ^ (0x10 + 0x0C) == 0x1B) println (159); else println (999);
38E8             L1884:
38E8 3A 01 50            LD    A,(05001H)
38EB             L1885:
38EB F5                  PUSH  AF
38EC 3E 10               LD    A,16
38EE             L1886:
38EE C6 0C               ADD   A,12
38F0             L1887:
38F0 C1                  POP   BC
38F1 A8                  XOR   A,B
38F2             L1888:
38F2 D6 1B               SUB   A,27
38F4             L1889:
38F4 C2 FF 38            JP    NZ,L1893
38F7             L1890:
38F7 3E 9F               LD    A,159
38F9             L1891:
38F9 CD BE 21            CALL  writeLineA
38FC             L1892:
38FC C3 05 39            JP    L1897
38FF             L1893:
38FF 21 E7 03            LD    HL,999
3902             L1894:
3902 CD 96 21            CALL  writeLineHL
3905             L1895:
3905                     ;;test15.j(272)   //final var word/acc word
3905             L1896:
3905                     ;;test15.j(273)   if (w2 & 0x0100 + 0x022C == 0x0224) println (160); else println (999);
3905             L1897:
3905 2A 04 50            LD    HL,(05004H)
3908             L1898:
3908 E6                  PUSH  HL
3909 21 00 01            LD    HL,256
390C             L1899:
390C 11 2C 02            LD    DE,556
390F 19                  ADD   HL,DE
3910             L1900:
3910 D1                  POP   DE
3911 C5                  PUSH  BC
3912 47                  LD    B,A
3913 7C                  LD    A,H
3914 A2                  AND   A,D
3915 67                  LD    H,A
3916 7D                  LD    A,L
3917 A3                  AND   A,E
3918 6F                  LD    L,A
3919 78                  LD    A,B
391A C1                  POP   BC
391B             L1901:
391B 11 24 02            LD    DE,548
391E B7                  OR    A
391F ED 52               SBC   HL,DE
3921             L1902:
3921 C2 2C 39            JP    NZ,L1906
3924             L1903:
3924 3E A0               LD    A,160
3926             L1904:
3926 CD BE 21            CALL  writeLineA
3929             L1905:
3929 C3 32 39            JP    L1909
392C             L1906:
392C 21 E7 03            LD    HL,999
392F             L1907:
392F CD 96 21            CALL  writeLineHL
3932             L1908:
3932                     ;;test15.j(274)   if (w2 | 0x0100 + 0x022C == 0x133C) println (161); else println (999);
3932             L1909:
3932 2A 04 50            LD    HL,(05004H)
3935             L1910:
3935 E6                  PUSH  HL
3936 21 00 01            LD    HL,256
3939             L1911:
3939 11 2C 02            LD    DE,556
393C 19                  ADD   HL,DE
393D             L1912:
393D D1                  POP   DE
393E C5                  PUSH  BC
393F 47                  LD    B,A
3940 7C                  LD    A,H
3941 B2                  OR    A,D
3942 67                  LD    H,A
3943 7D                  LD    A,L
3944 B3                  OR    A,E
3945 6F                  LD    L,A
3946 78                  LD    A,B
3947 C1                  POP   BC
3948             L1913:
3948 11 3C 13            LD    DE,4924
394B B7                  OR    A
394C ED 52               SBC   HL,DE
394E             L1914:
394E C2 59 39            JP    NZ,L1918
3951             L1915:
3951 3E A1               LD    A,161
3953             L1916:
3953 CD BE 21            CALL  writeLineA
3956             L1917:
3956 C3 5F 39            JP    L1921
3959             L1918:
3959 21 E7 03            LD    HL,999
395C             L1919:
395C CD 96 21            CALL  writeLineHL
395F             L1920:
395F                     ;;test15.j(275)   if (w2 ^ 0x0100 + 0x022C == 0x1118) println (162); else println (999);
395F             L1921:
395F 2A 04 50            LD    HL,(05004H)
3962             L1922:
3962 E6                  PUSH  HL
3963 21 00 01            LD    HL,256
3966             L1923:
3966 11 2C 02            LD    DE,556
3969 19                  ADD   HL,DE
396A             L1924:
396A D1                  POP   DE
396B C5                  PUSH  BC
396C 47                  LD    B,A
396D 7C                  LD    A,H
396E AA                  XOR   A,D
396F 67                  LD    H,A
3970 7D                  LD    A,L
3971 AB                  XOR   A,E
3972 6F                  LD    L,A
3973 78                  LD    A,B
3974 C1                  POP   BC
3975             L1925:
3975 11 18 11            LD    DE,4376
3978 B7                  OR    A
3979 ED 52               SBC   HL,DE
397B             L1926:
397B C2 86 39            JP    NZ,L1930
397E             L1927:
397E 3E A2               LD    A,162
3980             L1928:
3980 CD BE 21            CALL  writeLineA
3983             L1929:
3983 C3 8C 39            JP    L1934
3986             L1930:
3986 21 E7 03            LD    HL,999
3989             L1931:
3989 CD 96 21            CALL  writeLineHL
398C             L1932:
398C                     ;;test15.j(276)   //final var byt/acc word
398C             L1933:
398C                     ;;test15.j(277)   if (b1 & 0x1000 + 0x0234 == 0x0014) println (163); else println (999);
398C             L1934:
398C 3A 00 50            LD    A,(05000H)
398F             L1935:
398F 21 00 10            LD    HL,4096
3992             L1936:
3992 11 34 02            LD    DE,564
3995 19                  ADD   HL,DE
3996             L1937:
3996 A5                  AND   A,L
3997 6F                  LD    L,A
3998 26 00               LD    H,0
399A             L1938:
399A 3E 14               LD    A,20
399C             L1939:
399C 5F                  LD    E,A
399D 16 00               LD    D,0
399F EB                  EX    DE,HL
39A0 B7                  OR    A
39A1 ED 52               SBC   HL,DE
39A3             L1940:
39A3 C2 AE 39            JP    NZ,L1944
39A6             L1941:
39A6 3E A3               LD    A,163
39A8             L1942:
39A8 CD BE 21            CALL  writeLineA
39AB             L1943:
39AB C3 B4 39            JP    L1947
39AE             L1944:
39AE 21 E7 03            LD    HL,999
39B1             L1945:
39B1 CD 96 21            CALL  writeLineHL
39B4             L1946:
39B4                     ;;test15.j(278)   if (b1 | 0x1000 + 0x0234 == 0x123C) println (164); else println (999);
39B4             L1947:
39B4 3A 00 50            LD    A,(05000H)
39B7             L1948:
39B7 21 00 10            LD    HL,4096
39BA             L1949:
39BA 11 34 02            LD    DE,564
39BD 19                  ADD   HL,DE
39BE             L1950:
39BE B5                  OR    A,L
39BF 6F                  LD    L,A
39C0             L1951:
39C0 11 3C 12            LD    DE,4668
39C3 B7                  OR    A
39C4 ED 52               SBC   HL,DE
39C6             L1952:
39C6 C2 D1 39            JP    NZ,L1956
39C9             L1953:
39C9 3E A4               LD    A,164
39CB             L1954:
39CB CD BE 21            CALL  writeLineA
39CE             L1955:
39CE C3 D7 39            JP    L1959
39D1             L1956:
39D1 21 E7 03            LD    HL,999
39D4             L1957:
39D4 CD 96 21            CALL  writeLineHL
39D7             L1958:
39D7                     ;;test15.j(279)   if (b1 ^ 0x1000 + 0x0234 == 0x1228) println (165); else println (999);
39D7             L1959:
39D7 3A 00 50            LD    A,(05000H)
39DA             L1960:
39DA 21 00 10            LD    HL,4096
39DD             L1961:
39DD 11 34 02            LD    DE,564
39E0 19                  ADD   HL,DE
39E1             L1962:
39E1 AD                  XOR   A,L
39E2 6F                  LD    L,A
39E3             L1963:
39E3 11 28 12            LD    DE,4648
39E6 B7                  OR    A
39E7 ED 52               SBC   HL,DE
39E9             L1964:
39E9 C2 F4 39            JP    NZ,L1968
39EC             L1965:
39EC 3E A5               LD    A,165
39EE             L1966:
39EE CD BE 21            CALL  writeLineA
39F1             L1967:
39F1 C3 FA 39            JP    L1972
39F4             L1968:
39F4 21 E7 03            LD    HL,999
39F7             L1969:
39F7 CD 96 21            CALL  writeLineHL
39FA             L1970:
39FA                     ;;test15.j(280)   //final var word/acc byt
39FA             L1971:
39FA                     ;;test15.j(281)   if (w2 & 0x10 + 0x0C == 0x0014) println (166); else println (999);
39FA             L1972:
39FA 2A 04 50            LD    HL,(05004H)
39FD             L1973:
39FD 3E 10               LD    A,16
39FF             L1974:
39FF C6 0C               ADD   A,12
3A01             L1975:
3A01 A5                  AND   A,L
3A02 6F                  LD    L,A
3A03 26 00               LD    H,0
3A05             L1976:
3A05 3E 14               LD    A,20
3A07             L1977:
3A07 5F                  LD    E,A
3A08 16 00               LD    D,0
3A0A EB                  EX    DE,HL
3A0B B7                  OR    A
3A0C ED 52               SBC   HL,DE
3A0E             L1978:
3A0E C2 19 3A            JP    NZ,L1982
3A11             L1979:
3A11 3E A6               LD    A,166
3A13             L1980:
3A13 CD BE 21            CALL  writeLineA
3A16             L1981:
3A16 C3 1F 3A            JP    L1985
3A19             L1982:
3A19 21 E7 03            LD    HL,999
3A1C             L1983:
3A1C CD 96 21            CALL  writeLineHL
3A1F             L1984:
3A1F                     ;;test15.j(282)   if (w2 | 0x10 + 0x0C == 0x123C) println (167); else println (999);
3A1F             L1985:
3A1F 2A 04 50            LD    HL,(05004H)
3A22             L1986:
3A22 3E 10               LD    A,16
3A24             L1987:
3A24 C6 0C               ADD   A,12
3A26             L1988:
3A26 B5                  OR    A,L
3A27 6F                  LD    L,A
3A28             L1989:
3A28 11 3C 12            LD    DE,4668
3A2B B7                  OR    A
3A2C ED 52               SBC   HL,DE
3A2E             L1990:
3A2E C2 39 3A            JP    NZ,L1994
3A31             L1991:
3A31 3E A7               LD    A,167
3A33             L1992:
3A33 CD BE 21            CALL  writeLineA
3A36             L1993:
3A36 C3 3F 3A            JP    L1997
3A39             L1994:
3A39 21 E7 03            LD    HL,999
3A3C             L1995:
3A3C CD 96 21            CALL  writeLineHL
3A3F             L1996:
3A3F                     ;;test15.j(283)   if (w2 ^ 0x10 + 0x0C == 0x1228) println (168); else println (999);
3A3F             L1997:
3A3F 2A 04 50            LD    HL,(05004H)
3A42             L1998:
3A42 3E 10               LD    A,16
3A44             L1999:
3A44 C6 0C               ADD   A,12
3A46             L2000:
3A46 AD                  XOR   A,L
3A47 6F                  LD    L,A
3A48             L2001:
3A48 11 28 12            LD    DE,4648
3A4B B7                  OR    A
3A4C ED 52               SBC   HL,DE
3A4E             L2002:
3A4E C2 59 3A            JP    NZ,L2006
3A51             L2003:
3A51 3E A8               LD    A,168
3A53             L2004:
3A53 CD BE 21            CALL  writeLineA
3A56             L2005:
3A56 C3 5F 3A            JP    L2013
3A59             L2006:
3A59 21 E7 03            LD    HL,999
3A5C             L2007:
3A5C CD 96 21            CALL  writeLineHL
3A5F             L2008:
3A5F                     ;;test15.j(284) 
3A5F             L2009:
3A5F                     ;;test15.j(285)   //final var/var
3A5F             L2010:
3A5F                     ;;test15.j(286)   //*************
3A5F             L2011:
3A5F                     ;;test15.j(287)   //final var byte/var byte
3A5F             L2012:
3A5F                     ;;test15.j(288)   if (b2 & b1 == 0x04) println (169); else println (999);
3A5F             L2013:
3A5F 3A 01 50            LD    A,(05001H)
3A62             L2014:
3A62 47                  LD    B,A
3A63 3A 00 50            LD    A,(05000H)
3A66 A0                  AND   A,B
3A67             L2015:
3A67 D6 04               SUB   A,4
3A69             L2016:
3A69 C2 74 3A            JP    NZ,L2020
3A6C             L2017:
3A6C 3E A9               LD    A,169
3A6E             L2018:
3A6E CD BE 21            CALL  writeLineA
3A71             L2019:
3A71 C3 7A 3A            JP    L2023
3A74             L2020:
3A74 21 E7 03            LD    HL,999
3A77             L2021:
3A77 CD 96 21            CALL  writeLineHL
3A7A             L2022:
3A7A                     ;;test15.j(289)   if (b2 | b1 == 0x1F) println (170); else println (999);
3A7A             L2023:
3A7A 3A 01 50            LD    A,(05001H)
3A7D             L2024:
3A7D 47                  LD    B,A
3A7E 3A 00 50            LD    A,(05000H)
3A81 B0                  OR    A,B
3A82             L2025:
3A82 D6 1F               SUB   A,31
3A84             L2026:
3A84 C2 8F 3A            JP    NZ,L2030
3A87             L2027:
3A87 3E AA               LD    A,170
3A89             L2028:
3A89 CD BE 21            CALL  writeLineA
3A8C             L2029:
3A8C C3 95 3A            JP    L2033
3A8F             L2030:
3A8F 21 E7 03            LD    HL,999
3A92             L2031:
3A92 CD 96 21            CALL  writeLineHL
3A95             L2032:
3A95                     ;;test15.j(290)   if (b2 ^ b1 == 0x1B) println (171); else println (999);
3A95             L2033:
3A95 3A 01 50            LD    A,(05001H)
3A98             L2034:
3A98 47                  LD    B,A
3A99 3A 00 50            LD    A,(05000H)
3A9C A8                  XOR   A,B
3A9D             L2035:
3A9D D6 1B               SUB   A,27
3A9F             L2036:
3A9F C2 AA 3A            JP    NZ,L2040
3AA2             L2037:
3AA2 3E AB               LD    A,171
3AA4             L2038:
3AA4 CD BE 21            CALL  writeLineA
3AA7             L2039:
3AA7 C3 B0 3A            JP    L2044
3AAA             L2040:
3AAA 21 E7 03            LD    HL,999
3AAD             L2041:
3AAD CD 96 21            CALL  writeLineHL
3AB0             L2042:
3AB0                     ;;test15.j(291)   //final var word/var word
3AB0             L2043:
3AB0                     ;;test15.j(292)   if (w2 & w1 == 0x0224) println (172); else println (999);
3AB0             L2044:
3AB0 2A 04 50            LD    HL,(05004H)
3AB3             L2045:
3AB3 ED 5B 02 50         LD    DE,(05002H)
3AB7 C5                  PUSH  BC
3AB8 47                  LD    B,A
3AB9 7C                  LD    A,H
3ABA A2                  AND   A,D
3ABB 67                  LD    H,A
3ABC 7D                  LD    A,L
3ABD A3                  AND   A,E
3ABE 6F                  LD    L,A
3ABF 78                  LD    A,B
3AC0 C1                  POP   BC
3AC1             L2046:
3AC1 11 24 02            LD    DE,548
3AC4 B7                  OR    A
3AC5 ED 52               SBC   HL,DE
3AC7             L2047:
3AC7 C2 D2 3A            JP    NZ,L2051
3ACA             L2048:
3ACA 3E AC               LD    A,172
3ACC             L2049:
3ACC CD BE 21            CALL  writeLineA
3ACF             L2050:
3ACF C3 D8 3A            JP    L2054
3AD2             L2051:
3AD2 21 E7 03            LD    HL,999
3AD5             L2052:
3AD5 CD 96 21            CALL  writeLineHL
3AD8             L2053:
3AD8                     ;;test15.j(293)   if (w2 | w1 == 0x133C) println (173); else println (999);
3AD8             L2054:
3AD8 2A 04 50            LD    HL,(05004H)
3ADB             L2055:
3ADB ED 5B 02 50         LD    DE,(05002H)
3ADF C5                  PUSH  BC
3AE0 47                  LD    B,A
3AE1 7C                  LD    A,H
3AE2 B2                  OR    A,D
3AE3 67                  LD    H,A
3AE4 7D                  LD    A,L
3AE5 B3                  OR    A,E
3AE6 6F                  LD    L,A
3AE7 78                  LD    A,B
3AE8 C1                  POP   BC
3AE9             L2056:
3AE9 11 3C 13            LD    DE,4924
3AEC B7                  OR    A
3AED ED 52               SBC   HL,DE
3AEF             L2057:
3AEF C2 FA 3A            JP    NZ,L2061
3AF2             L2058:
3AF2 3E AD               LD    A,173
3AF4             L2059:
3AF4 CD BE 21            CALL  writeLineA
3AF7             L2060:
3AF7 C3 00 3B            JP    L2064
3AFA             L2061:
3AFA 21 E7 03            LD    HL,999
3AFD             L2062:
3AFD CD 96 21            CALL  writeLineHL
3B00             L2063:
3B00                     ;;test15.j(294)   if (w2 ^ w1 == 0x1118) println (174); else println (999);
3B00             L2064:
3B00 2A 04 50            LD    HL,(05004H)
3B03             L2065:
3B03 ED 5B 02 50         LD    DE,(05002H)
3B07 C5                  PUSH  BC
3B08 47                  LD    B,A
3B09 7C                  LD    A,H
3B0A AA                  XOR   A,D
3B0B 67                  LD    H,A
3B0C 7D                  LD    A,L
3B0D AB                  XOR   A,E
3B0E 6F                  LD    L,A
3B0F 78                  LD    A,B
3B10 C1                  POP   BC
3B11             L2066:
3B11 11 18 11            LD    DE,4376
3B14 B7                  OR    A
3B15 ED 52               SBC   HL,DE
3B17             L2067:
3B17 C2 22 3B            JP    NZ,L2071
3B1A             L2068:
3B1A 3E AE               LD    A,174
3B1C             L2069:
3B1C CD BE 21            CALL  writeLineA
3B1F             L2070:
3B1F C3 28 3B            JP    L2075
3B22             L2071:
3B22 21 E7 03            LD    HL,999
3B25             L2072:
3B25 CD 96 21            CALL  writeLineHL
3B28             L2073:
3B28                     ;;test15.j(295)   //final var byt/var word
3B28             L2074:
3B28                     ;;test15.j(296)   if (b1 & w2 == 0x0014) println (175); else println (999);
3B28             L2075:
3B28 3A 00 50            LD    A,(05000H)
3B2B             L2076:
3B2B 6F                  LD    L,A
3B2C 26 00               LD    H,0
3B2E             L2077:
3B2E ED 5B 04 50         LD    DE,(05004H)
3B32 C5                  PUSH  BC
3B33 47                  LD    B,A
3B34 7C                  LD    A,H
3B35 A2                  AND   A,D
3B36 67                  LD    H,A
3B37 7D                  LD    A,L
3B38 A3                  AND   A,E
3B39 6F                  LD    L,A
3B3A 78                  LD    A,B
3B3B C1                  POP   BC
3B3C             L2078:
3B3C 3E 14               LD    A,20
3B3E             L2079:
3B3E 5F                  LD    E,A
3B3F 16 00               LD    D,0
3B41 EB                  EX    DE,HL
3B42 B7                  OR    A
3B43 ED 52               SBC   HL,DE
3B45             L2080:
3B45 C2 50 3B            JP    NZ,L2084
3B48             L2081:
3B48 3E AF               LD    A,175
3B4A             L2082:
3B4A CD BE 21            CALL  writeLineA
3B4D             L2083:
3B4D C3 56 3B            JP    L2087
3B50             L2084:
3B50 21 E7 03            LD    HL,999
3B53             L2085:
3B53 CD 96 21            CALL  writeLineHL
3B56             L2086:
3B56                     ;;test15.j(297)   if (b1 | w2 == 0x123C) println (176); else println (999);
3B56             L2087:
3B56 3A 00 50            LD    A,(05000H)
3B59             L2088:
3B59 6F                  LD    L,A
3B5A 26 00               LD    H,0
3B5C             L2089:
3B5C ED 5B 04 50         LD    DE,(05004H)
3B60 C5                  PUSH  BC
3B61 47                  LD    B,A
3B62 7C                  LD    A,H
3B63 B2                  OR    A,D
3B64 67                  LD    H,A
3B65 7D                  LD    A,L
3B66 B3                  OR    A,E
3B67 6F                  LD    L,A
3B68 78                  LD    A,B
3B69 C1                  POP   BC
3B6A             L2090:
3B6A 11 3C 12            LD    DE,4668
3B6D B7                  OR    A
3B6E ED 52               SBC   HL,DE
3B70             L2091:
3B70 C2 7B 3B            JP    NZ,L2095
3B73             L2092:
3B73 3E B0               LD    A,176
3B75             L2093:
3B75 CD BE 21            CALL  writeLineA
3B78             L2094:
3B78 C3 81 3B            JP    L2098
3B7B             L2095:
3B7B 21 E7 03            LD    HL,999
3B7E             L2096:
3B7E CD 96 21            CALL  writeLineHL
3B81             L2097:
3B81                     ;;test15.j(298)   if (b1 ^ w2 == 0x1228) println (177); else println (999);
3B81             L2098:
3B81 3A 00 50            LD    A,(05000H)
3B84             L2099:
3B84 6F                  LD    L,A
3B85 26 00               LD    H,0
3B87             L2100:
3B87 ED 5B 04 50         LD    DE,(05004H)
3B8B C5                  PUSH  BC
3B8C 47                  LD    B,A
3B8D 7C                  LD    A,H
3B8E AA                  XOR   A,D
3B8F 67                  LD    H,A
3B90 7D                  LD    A,L
3B91 AB                  XOR   A,E
3B92 6F                  LD    L,A
3B93 78                  LD    A,B
3B94 C1                  POP   BC
3B95             L2101:
3B95 11 28 12            LD    DE,4648
3B98 B7                  OR    A
3B99 ED 52               SBC   HL,DE
3B9B             L2102:
3B9B C2 A6 3B            JP    NZ,L2106
3B9E             L2103:
3B9E 3E B1               LD    A,177
3BA0             L2104:
3BA0 CD BE 21            CALL  writeLineA
3BA3             L2105:
3BA3 C3 AC 3B            JP    L2110
3BA6             L2106:
3BA6 21 E7 03            LD    HL,999
3BA9             L2107:
3BA9 CD 96 21            CALL  writeLineHL
3BAC             L2108:
3BAC                     ;;test15.j(299)   //final var word/var byt
3BAC             L2109:
3BAC                     ;;test15.j(300)   if (w2 & b1 == 0x0014) println (178); else println (999);
3BAC             L2110:
3BAC 2A 04 50            LD    HL,(05004H)
3BAF             L2111:
3BAF ED 5B 00 50         LD    DE,(05000H)
3BB3 C5                  PUSH  BC
3BB4 47                  LD    B,A
3BB5 7C                  LD    A,H
3BB6 A2                  AND   A,D
3BB7 67                  LD    H,A
3BB8 7D                  LD    A,L
3BB9 A3                  AND   A,E
3BBA 6F                  LD    L,A
3BBB 78                  LD    A,B
3BBC C1                  POP   BC
3BBD             L2112:
3BBD 3E 14               LD    A,20
3BBF             L2113:
3BBF 5F                  LD    E,A
3BC0 16 00               LD    D,0
3BC2 EB                  EX    DE,HL
3BC3 B7                  OR    A
3BC4 ED 52               SBC   HL,DE
3BC6             L2114:
3BC6 C2 D1 3B            JP    NZ,L2118
3BC9             L2115:
3BC9 3E B2               LD    A,178
3BCB             L2116:
3BCB CD BE 21            CALL  writeLineA
3BCE             L2117:
3BCE C3 D7 3B            JP    L2121
3BD1             L2118:
3BD1 21 E7 03            LD    HL,999
3BD4             L2119:
3BD4 CD 96 21            CALL  writeLineHL
3BD7             L2120:
3BD7                     ;;test15.j(301)   if (w2 | b1 == 0x123C) println (179); else println (999);
3BD7             L2121:
3BD7 2A 04 50            LD    HL,(05004H)
3BDA             L2122:
3BDA ED 5B 00 50         LD    DE,(05000H)
3BDE C5                  PUSH  BC
3BDF 47                  LD    B,A
3BE0 7C                  LD    A,H
3BE1 B2                  OR    A,D
3BE2 67                  LD    H,A
3BE3 7D                  LD    A,L
3BE4 B3                  OR    A,E
3BE5 6F                  LD    L,A
3BE6 78                  LD    A,B
3BE7 C1                  POP   BC
3BE8             L2123:
3BE8 11 3C 12            LD    DE,4668
3BEB B7                  OR    A
3BEC ED 52               SBC   HL,DE
3BEE             L2124:
3BEE C2 F9 3B            JP    NZ,L2128
3BF1             L2125:
3BF1 3E B3               LD    A,179
3BF3             L2126:
3BF3 CD BE 21            CALL  writeLineA
3BF6             L2127:
3BF6 C3 FF 3B            JP    L2131
3BF9             L2128:
3BF9 21 E7 03            LD    HL,999
3BFC             L2129:
3BFC CD 96 21            CALL  writeLineHL
3BFF             L2130:
3BFF                     ;;test15.j(302)   if (w2 ^ b1 == 0x1228) println (180); else println (999);
3BFF             L2131:
3BFF 2A 04 50            LD    HL,(05004H)
3C02             L2132:
3C02 ED 5B 00 50         LD    DE,(05000H)
3C06 C5                  PUSH  BC
3C07 47                  LD    B,A
3C08 7C                  LD    A,H
3C09 AA                  XOR   A,D
3C0A 67                  LD    H,A
3C0B 7D                  LD    A,L
3C0C AB                  XOR   A,E
3C0D 6F                  LD    L,A
3C0E 78                  LD    A,B
3C0F C1                  POP   BC
3C10             L2133:
3C10 11 28 12            LD    DE,4648
3C13 B7                  OR    A
3C14 ED 52               SBC   HL,DE
3C16             L2134:
3C16 C2 21 3C            JP    NZ,L2138
3C19             L2135:
3C19 3E B4               LD    A,180
3C1B             L2136:
3C1B CD BE 21            CALL  writeLineA
3C1E             L2137:
3C1E C3 27 3C            JP    L2145
3C21             L2138:
3C21 21 E7 03            LD    HL,999
3C24             L2139:
3C24 CD 96 21            CALL  writeLineHL
3C27             L2140:
3C27                     ;;test15.j(303) 
3C27             L2141:
3C27                     ;;test15.j(304)   //final var/final var
3C27             L2142:
3C27                     ;;test15.j(305)   //*******************
3C27             L2143:
3C27                     ;;test15.j(306)   //final var byte/final var byte
3C27             L2144:
3C27                     ;;test15.j(307)   if (fb2 & fb1 == 0x04) println (181); else println (999);
3C27             L2145:
3C27 3E 07               LD    A,7
3C29             L2146:
3C29 E6 1C               AND   A,28
3C2B             L2147:
3C2B D6 04               SUB   A,4
3C2D             L2148:
3C2D C2 38 3C            JP    NZ,L2152
3C30             L2149:
3C30 3E B5               LD    A,181
3C32             L2150:
3C32 CD BE 21            CALL  writeLineA
3C35             L2151:
3C35 C3 3E 3C            JP    L2155
3C38             L2152:
3C38 21 E7 03            LD    HL,999
3C3B             L2153:
3C3B CD 96 21            CALL  writeLineHL
3C3E             L2154:
3C3E                     ;;test15.j(308)   if (fb2 | fb1 == 0x1F) println (182); else println (999);
3C3E             L2155:
3C3E 3E 07               LD    A,7
3C40             L2156:
3C40 F6 1C               OR    A,28
3C42             L2157:
3C42 D6 1F               SUB   A,31
3C44             L2158:
3C44 C2 4F 3C            JP    NZ,L2162
3C47             L2159:
3C47 3E B6               LD    A,182
3C49             L2160:
3C49 CD BE 21            CALL  writeLineA
3C4C             L2161:
3C4C C3 55 3C            JP    L2165
3C4F             L2162:
3C4F 21 E7 03            LD    HL,999
3C52             L2163:
3C52 CD 96 21            CALL  writeLineHL
3C55             L2164:
3C55                     ;;test15.j(309)   if (fb2 ^ fb1 == 0x1B) println (183); else println (999);
3C55             L2165:
3C55 3E 07               LD    A,7
3C57             L2166:
3C57 EE 1C               XOR   A,28
3C59             L2167:
3C59 D6 1B               SUB   A,27
3C5B             L2168:
3C5B C2 66 3C            JP    NZ,L2172
3C5E             L2169:
3C5E 3E B7               LD    A,183
3C60             L2170:
3C60 CD BE 21            CALL  writeLineA
3C63             L2171:
3C63 C3 6C 3C            JP    L2176
3C66             L2172:
3C66 21 E7 03            LD    HL,999
3C69             L2173:
3C69 CD 96 21            CALL  writeLineHL
3C6C             L2174:
3C6C                     ;;test15.j(310)   //final var word/final var word
3C6C             L2175:
3C6C                     ;;test15.j(311)   if (fw2 & fw1 == 0x0224) println (184); else println (999);
3C6C             L2176:
3C6C 21 34 12            LD    HL,4660
3C6F             L2177:
3C6F 11 2C 03            LD    DE,812
3C72 C5                  PUSH  BC
3C73 47                  LD    B,A
3C74 7C                  LD    A,H
3C75 A2                  AND   A,D
3C76 67                  LD    H,A
3C77 7D                  LD    A,L
3C78 A3                  AND   A,E
3C79 6F                  LD    L,A
3C7A 78                  LD    A,B
3C7B C1                  POP   BC
3C7C             L2178:
3C7C 11 24 02            LD    DE,548
3C7F B7                  OR    A
3C80 ED 52               SBC   HL,DE
3C82             L2179:
3C82 C2 8D 3C            JP    NZ,L2183
3C85             L2180:
3C85 3E B8               LD    A,184
3C87             L2181:
3C87 CD BE 21            CALL  writeLineA
3C8A             L2182:
3C8A C3 93 3C            JP    L2186
3C8D             L2183:
3C8D 21 E7 03            LD    HL,999
3C90             L2184:
3C90 CD 96 21            CALL  writeLineHL
3C93             L2185:
3C93                     ;;test15.j(312)   if (fw2 | fw1 == 0x133C) println (185); else println (999);
3C93             L2186:
3C93 21 34 12            LD    HL,4660
3C96             L2187:
3C96 11 2C 03            LD    DE,812
3C99 C5                  PUSH  BC
3C9A 47                  LD    B,A
3C9B 7C                  LD    A,H
3C9C B2                  OR    A,D
3C9D 67                  LD    H,A
3C9E 7D                  LD    A,L
3C9F B3                  OR    A,E
3CA0 6F                  LD    L,A
3CA1 78                  LD    A,B
3CA2 C1                  POP   BC
3CA3             L2188:
3CA3 11 3C 13            LD    DE,4924
3CA6 B7                  OR    A
3CA7 ED 52               SBC   HL,DE
3CA9             L2189:
3CA9 C2 B4 3C            JP    NZ,L2193
3CAC             L2190:
3CAC 3E B9               LD    A,185
3CAE             L2191:
3CAE CD BE 21            CALL  writeLineA
3CB1             L2192:
3CB1 C3 BA 3C            JP    L2196
3CB4             L2193:
3CB4 21 E7 03            LD    HL,999
3CB7             L2194:
3CB7 CD 96 21            CALL  writeLineHL
3CBA             L2195:
3CBA                     ;;test15.j(313)   if (fw2 ^ fw1 == 0x1118) println (186); else println (999);
3CBA             L2196:
3CBA 21 34 12            LD    HL,4660
3CBD             L2197:
3CBD 11 2C 03            LD    DE,812
3CC0 C5                  PUSH  BC
3CC1 47                  LD    B,A
3CC2 7C                  LD    A,H
3CC3 AA                  XOR   A,D
3CC4 67                  LD    H,A
3CC5 7D                  LD    A,L
3CC6 AB                  XOR   A,E
3CC7 6F                  LD    L,A
3CC8 78                  LD    A,B
3CC9 C1                  POP   BC
3CCA             L2198:
3CCA 11 18 11            LD    DE,4376
3CCD B7                  OR    A
3CCE ED 52               SBC   HL,DE
3CD0             L2199:
3CD0 C2 DB 3C            JP    NZ,L2203
3CD3             L2200:
3CD3 3E BA               LD    A,186
3CD5             L2201:
3CD5 CD BE 21            CALL  writeLineA
3CD8             L2202:
3CD8 C3 E1 3C            JP    L2207
3CDB             L2203:
3CDB 21 E7 03            LD    HL,999
3CDE             L2204:
3CDE CD 96 21            CALL  writeLineHL
3CE1             L2205:
3CE1                     ;;test15.j(314)   //final var byt/final var word
3CE1             L2206:
3CE1                     ;;test15.j(315)   if (fb1 & fw2 == 0x0014) println (187); else println (999);
3CE1             L2207:
3CE1 3E 1C               LD    A,28
3CE3             L2208:
3CE3 6F                  LD    L,A
3CE4 26 00               LD    H,0
3CE6             L2209:
3CE6 11 34 12            LD    DE,4660
3CE9 C5                  PUSH  BC
3CEA 47                  LD    B,A
3CEB 7C                  LD    A,H
3CEC A2                  AND   A,D
3CED 67                  LD    H,A
3CEE 7D                  LD    A,L
3CEF A3                  AND   A,E
3CF0 6F                  LD    L,A
3CF1 78                  LD    A,B
3CF2 C1                  POP   BC
3CF3             L2210:
3CF3 3E 14               LD    A,20
3CF5             L2211:
3CF5 5F                  LD    E,A
3CF6 16 00               LD    D,0
3CF8 EB                  EX    DE,HL
3CF9 B7                  OR    A
3CFA ED 52               SBC   HL,DE
3CFC             L2212:
3CFC C2 07 3D            JP    NZ,L2216
3CFF             L2213:
3CFF 3E BB               LD    A,187
3D01             L2214:
3D01 CD BE 21            CALL  writeLineA
3D04             L2215:
3D04 C3 0D 3D            JP    L2219
3D07             L2216:
3D07 21 E7 03            LD    HL,999
3D0A             L2217:
3D0A CD 96 21            CALL  writeLineHL
3D0D             L2218:
3D0D                     ;;test15.j(316)   if (fb1 | fw2 == 0x123C) println (188); else println (999);
3D0D             L2219:
3D0D 3E 1C               LD    A,28
3D0F             L2220:
3D0F 6F                  LD    L,A
3D10 26 00               LD    H,0
3D12             L2221:
3D12 11 34 12            LD    DE,4660
3D15 C5                  PUSH  BC
3D16 47                  LD    B,A
3D17 7C                  LD    A,H
3D18 B2                  OR    A,D
3D19 67                  LD    H,A
3D1A 7D                  LD    A,L
3D1B B3                  OR    A,E
3D1C 6F                  LD    L,A
3D1D 78                  LD    A,B
3D1E C1                  POP   BC
3D1F             L2222:
3D1F 11 3C 12            LD    DE,4668
3D22 B7                  OR    A
3D23 ED 52               SBC   HL,DE
3D25             L2223:
3D25 C2 30 3D            JP    NZ,L2227
3D28             L2224:
3D28 3E BC               LD    A,188
3D2A             L2225:
3D2A CD BE 21            CALL  writeLineA
3D2D             L2226:
3D2D C3 36 3D            JP    L2230
3D30             L2227:
3D30 21 E7 03            LD    HL,999
3D33             L2228:
3D33 CD 96 21            CALL  writeLineHL
3D36             L2229:
3D36                     ;;test15.j(317)   if (fb1 ^ fw2 == 0x1228) println (189); else println (999);
3D36             L2230:
3D36 3E 1C               LD    A,28
3D38             L2231:
3D38 6F                  LD    L,A
3D39 26 00               LD    H,0
3D3B             L2232:
3D3B 11 34 12            LD    DE,4660
3D3E C5                  PUSH  BC
3D3F 47                  LD    B,A
3D40 7C                  LD    A,H
3D41 AA                  XOR   A,D
3D42 67                  LD    H,A
3D43 7D                  LD    A,L
3D44 AB                  XOR   A,E
3D45 6F                  LD    L,A
3D46 78                  LD    A,B
3D47 C1                  POP   BC
3D48             L2233:
3D48 11 28 12            LD    DE,4648
3D4B B7                  OR    A
3D4C ED 52               SBC   HL,DE
3D4E             L2234:
3D4E C2 59 3D            JP    NZ,L2238
3D51             L2235:
3D51 3E BD               LD    A,189
3D53             L2236:
3D53 CD BE 21            CALL  writeLineA
3D56             L2237:
3D56 C3 5F 3D            JP    L2242
3D59             L2238:
3D59 21 E7 03            LD    HL,999
3D5C             L2239:
3D5C CD 96 21            CALL  writeLineHL
3D5F             L2240:
3D5F                     ;;test15.j(318)   //final var word/final var byt
3D5F             L2241:
3D5F                     ;;test15.j(319)   if (fw2 & fb1 == 0x0014) println (190); else println (999);
3D5F             L2242:
3D5F 21 34 12            LD    HL,4660
3D62             L2243:
3D62 11 1C 00            LD    DE,28
3D65 C5                  PUSH  BC
3D66 47                  LD    B,A
3D67 7C                  LD    A,H
3D68 A2                  AND   A,D
3D69 67                  LD    H,A
3D6A 7D                  LD    A,L
3D6B A3                  AND   A,E
3D6C 6F                  LD    L,A
3D6D 78                  LD    A,B
3D6E C1                  POP   BC
3D6F             L2244:
3D6F 3E 14               LD    A,20
3D71             L2245:
3D71 5F                  LD    E,A
3D72 16 00               LD    D,0
3D74 EB                  EX    DE,HL
3D75 B7                  OR    A
3D76 ED 52               SBC   HL,DE
3D78             L2246:
3D78 C2 83 3D            JP    NZ,L2250
3D7B             L2247:
3D7B 3E BE               LD    A,190
3D7D             L2248:
3D7D CD BE 21            CALL  writeLineA
3D80             L2249:
3D80 C3 89 3D            JP    L2253
3D83             L2250:
3D83 21 E7 03            LD    HL,999
3D86             L2251:
3D86 CD 96 21            CALL  writeLineHL
3D89             L2252:
3D89                     ;;test15.j(320)   if (fw2 | fb1 == 0x123C) println (191); else println (999);
3D89             L2253:
3D89 21 34 12            LD    HL,4660
3D8C             L2254:
3D8C 11 1C 00            LD    DE,28
3D8F C5                  PUSH  BC
3D90 47                  LD    B,A
3D91 7C                  LD    A,H
3D92 B2                  OR    A,D
3D93 67                  LD    H,A
3D94 7D                  LD    A,L
3D95 B3                  OR    A,E
3D96 6F                  LD    L,A
3D97 78                  LD    A,B
3D98 C1                  POP   BC
3D99             L2255:
3D99 11 3C 12            LD    DE,4668
3D9C B7                  OR    A
3D9D ED 52               SBC   HL,DE
3D9F             L2256:
3D9F C2 AA 3D            JP    NZ,L2260
3DA2             L2257:
3DA2 3E BF               LD    A,191
3DA4             L2258:
3DA4 CD BE 21            CALL  writeLineA
3DA7             L2259:
3DA7 C3 B0 3D            JP    L2263
3DAA             L2260:
3DAA 21 E7 03            LD    HL,999
3DAD             L2261:
3DAD CD 96 21            CALL  writeLineHL
3DB0             L2262:
3DB0                     ;;test15.j(321)   if (fw2 ^ fb1 == 0x1228) println (192); else println (999);
3DB0             L2263:
3DB0 21 34 12            LD    HL,4660
3DB3             L2264:
3DB3 11 1C 00            LD    DE,28
3DB6 C5                  PUSH  BC
3DB7 47                  LD    B,A
3DB8 7C                  LD    A,H
3DB9 AA                  XOR   A,D
3DBA 67                  LD    H,A
3DBB 7D                  LD    A,L
3DBC AB                  XOR   A,E
3DBD 6F                  LD    L,A
3DBE 78                  LD    A,B
3DBF C1                  POP   BC
3DC0             L2265:
3DC0 11 28 12            LD    DE,4648
3DC3 B7                  OR    A
3DC4 ED 52               SBC   HL,DE
3DC6             L2266:
3DC6 C2 D1 3D            JP    NZ,L2270
3DC9             L2267:
3DC9 3E C0               LD    A,192
3DCB             L2268:
3DCB CD BE 21            CALL  writeLineA
3DCE             L2269:
3DCE C3 D7 3D            JP    L2274
3DD1             L2270:
3DD1 21 E7 03            LD    HL,999
3DD4             L2271:
3DD4 CD 96 21            CALL  writeLineHL
3DD7             L2272:
3DD7                     ;;test15.j(322) 
3DD7             L2273:
3DD7                     ;;test15.j(323)   println("Klaar");
3DD7             L2274:
3DD7 21 E6 08            LD    HL,2278
3DDA             L2275:
3DDA CD 43 20            CALL  writeLineStr
3DDD             L2276:
3DDD                     ;;test15.j(324) }
3DDD             L2277:
3DDD C3 71 01            JP    00171H      ;Jump to Zilog Z80183 Monitor.
3DE0             L2278:
3DE0                     .ASCIZ  "Klaar"

Labels and cross references:
      L0 = 21CE :
      L1 = 21CE :
     L10 = 21D3 :
    L100 = 22BE :
   L1000 = 2DCD :
   L1001 = 2DCF :
   L1002 = 2DD6 :
   L1003 = 2DD9 :
   L1004 = 2DDB :
   L1005 = 2DDE :
   L1006 = 2DE1 : 2DD6
   L1007 = 2DE4 :
   L1008 = 2DE7 :
   L1009 = 2DE7 : 2DDE
    L101 = 22C1 :
   L1010 = 2DEA :
   L1011 = 2DEE :
   L1012 = 2DFC :
   L1013 = 2E02 :
   L1014 = 2E05 :
   L1015 = 2E07 :
   L1016 = 2E0A :
   L1017 = 2E0D : 2E02
   L1018 = 2E10 :
   L1019 = 2E13 :
    L102 = 22C3 :
   L1020 = 2E13 : 2E0A
   L1021 = 2E16 :
   L1022 = 2E1A :
   L1023 = 2E28 :
   L1024 = 2E2E :
   L1025 = 2E31 :
   L1026 = 2E33 :
   L1027 = 2E36 :
   L1028 = 2E39 : 2E2E
   L1029 = 2E3C :
    L103 = 22C6 :
   L1030 = 2E3F :
   L1031 = 2E3F :
   L1032 = 2E3F :
   L1033 = 2E3F :
   L1034 = 2E3F :
   L1035 = 2E3F : 2E36
   L1036 = 2E41 :
   L1037 = 2E43 :
   L1038 = 2E45 :
   L1039 = 2E47 :
    L104 = 22C9 : 22BE
   L1040 = 2E4A :
   L1041 = 2E4C :
   L1042 = 2E4F :
   L1043 = 2E52 : 2E47
   L1044 = 2E55 :
   L1045 = 2E58 :
   L1046 = 2E58 : 2E4F
   L1047 = 2E5A :
   L1048 = 2E5C :
   L1049 = 2E5E :
    L105 = 22CC :
   L1050 = 2E60 :
   L1051 = 2E63 :
   L1052 = 2E65 :
   L1053 = 2E68 :
   L1054 = 2E6B : 2E60
   L1055 = 2E6E :
   L1056 = 2E71 :
   L1057 = 2E71 : 2E68
   L1058 = 2E73 :
   L1059 = 2E75 :
    L106 = 22CF :
   L1060 = 2E77 :
   L1061 = 2E79 :
   L1062 = 2E7C :
   L1063 = 2E7E :
   L1064 = 2E81 :
   L1065 = 2E84 : 2E79
   L1066 = 2E87 :
   L1067 = 2E8A :
   L1068 = 2E8A :
   L1069 = 2E8A : 2E81
    L107 = 22CF : 22C6
   L1070 = 2E8D :
   L1071 = 2E91 :
   L1072 = 2E9E :
   L1073 = 2EA4 :
   L1074 = 2EA7 :
   L1075 = 2EA9 :
   L1076 = 2EAC :
   L1077 = 2EAF : 2EA4
   L1078 = 2EB2 :
   L1079 = 2EB5 :
    L108 = 22D1 :
   L1080 = 2EB5 : 2EAC
   L1081 = 2EB8 :
   L1082 = 2EBC :
   L1083 = 2EC9 :
   L1084 = 2ECF :
   L1085 = 2ED2 :
   L1086 = 2ED4 :
   L1087 = 2ED7 :
   L1088 = 2EDA : 2ECF
   L1089 = 2EDD :
    L109 = 22D4 :
   L1090 = 2EE0 :
   L1091 = 2EE0 : 2ED7
   L1092 = 2EE3 :
   L1093 = 2EE7 :
   L1094 = 2EF4 :
   L1095 = 2EFA :
   L1096 = 2EFD :
   L1097 = 2EFF :
   L1098 = 2F02 :
   L1099 = 2F05 : 2EFA
     L11 = 21D5 :
    L110 = 22E1 :
   L1100 = 2F08 :
   L1101 = 2F0B :
   L1102 = 2F0B :
   L1103 = 2F0B : 2F02
   L1104 = 2F0D :
   L1105 = 2F0F :
   L1106 = 2F12 :
   L1107 = 2F1F :
   L1108 = 2F21 :
   L1109 = 2F28 :
    L111 = 22E7 :
   L1110 = 2F2B :
   L1111 = 2F2D :
   L1112 = 2F30 :
   L1113 = 2F33 : 2F28
   L1114 = 2F36 :
   L1115 = 2F39 :
   L1116 = 2F39 : 2F30
   L1117 = 2F3B :
   L1118 = 2F3D :
   L1119 = 2F40 :
    L112 = 22EA :
   L1120 = 2F4D :
   L1121 = 2F53 :
   L1122 = 2F56 :
   L1123 = 2F58 :
   L1124 = 2F5B :
   L1125 = 2F5E : 2F53
   L1126 = 2F61 :
   L1127 = 2F64 :
   L1128 = 2F64 : 2F5B
   L1129 = 2F66 :
    L113 = 22EC :
   L1130 = 2F68 :
   L1131 = 2F6B :
   L1132 = 2F78 :
   L1133 = 2F7E :
   L1134 = 2F81 :
   L1135 = 2F83 :
   L1136 = 2F86 :
   L1137 = 2F89 : 2F7E
   L1138 = 2F8C :
   L1139 = 2F8F :
    L114 = 22EF :
   L1140 = 2F8F :
   L1141 = 2F8F : 2F86
   L1142 = 2F92 :
   L1143 = 2F96 :
   L1144 = 2FA3 :
   L1145 = 2FA5 :
   L1146 = 2FAC :
   L1147 = 2FAF :
   L1148 = 2FB1 :
   L1149 = 2FB4 :
    L115 = 22F2 : 22E7
   L1150 = 2FB7 : 2FAC
   L1151 = 2FBA :
   L1152 = 2FBD :
   L1153 = 2FBD : 2FB4
   L1154 = 2FC0 :
   L1155 = 2FC4 :
   L1156 = 2FD1 :
   L1157 = 2FD7 :
   L1158 = 2FDA :
   L1159 = 2FDC :
    L116 = 22F5 :
   L1160 = 2FDF :
   L1161 = 2FE2 : 2FD7
   L1162 = 2FE5 :
   L1163 = 2FE8 :
   L1164 = 2FE8 : 2FDF
   L1165 = 2FEB :
   L1166 = 2FEF :
   L1167 = 2FFC :
   L1168 = 3002 :
   L1169 = 3005 :
    L117 = 22F8 :
   L1170 = 3007 :
   L1171 = 300A :
   L1172 = 300D : 3002
   L1173 = 3010 :
   L1174 = 3013 :
   L1175 = 3013 :
   L1176 = 3013 :
   L1177 = 3013 :
   L1178 = 3013 :
   L1179 = 3013 : 300A
    L118 = 22F8 : 22EF
   L1180 = 3016 :
   L1181 = 3018 :
   L1182 = 301A :
   L1183 = 301D :
   L1184 = 301F :
   L1185 = 3022 :
   L1186 = 3025 : 301A
   L1187 = 3028 :
   L1188 = 302B :
   L1189 = 302B : 3022
    L119 = 22FA :
   L1190 = 302E :
   L1191 = 3030 :
   L1192 = 3032 :
   L1193 = 3035 :
   L1194 = 3037 :
   L1195 = 303A :
   L1196 = 303D : 3032
   L1197 = 3040 :
   L1198 = 3043 :
   L1199 = 3043 : 303A
     L12 = 21D8 :
    L120 = 22FD :
   L1200 = 3046 :
   L1201 = 3048 :
   L1202 = 304A :
   L1203 = 304D :
   L1204 = 304F :
   L1205 = 3052 :
   L1206 = 3055 : 304A
   L1207 = 3058 :
   L1208 = 305B :
   L1209 = 305B :
    L121 = 230A :
   L1210 = 305B : 3052
   L1211 = 305E :
   L1212 = 306B :
   L1213 = 3071 :
   L1214 = 3074 :
   L1215 = 3076 :
   L1216 = 3079 :
   L1217 = 307C : 3071
   L1218 = 307F :
   L1219 = 3082 :
    L122 = 2310 :
   L1220 = 3082 : 3079
   L1221 = 3085 :
   L1222 = 3092 :
   L1223 = 3098 :
   L1224 = 309B :
   L1225 = 309D :
   L1226 = 30A0 :
   L1227 = 30A3 : 3098
   L1228 = 30A6 :
   L1229 = 30A9 :
    L123 = 2313 :
   L1230 = 30A9 : 30A0
   L1231 = 30AC :
   L1232 = 30B9 :
   L1233 = 30BF :
   L1234 = 30C2 :
   L1235 = 30C4 :
   L1236 = 30C7 :
   L1237 = 30CA : 30BF
   L1238 = 30CD :
   L1239 = 30D0 :
    L124 = 2315 :
   L1240 = 30D0 :
   L1241 = 30D0 : 30C7
   L1242 = 30D3 :
   L1243 = 30D6 :
   L1244 = 30E3 :
   L1245 = 30E5 :
   L1246 = 30EC :
   L1247 = 30EF :
   L1248 = 30F1 :
   L1249 = 30F4 :
    L125 = 2318 :
   L1250 = 30F7 : 30EC
   L1251 = 30FA :
   L1252 = 30FD :
   L1253 = 30FD : 30F4
   L1254 = 3100 :
   L1255 = 3103 :
   L1256 = 3110 :
   L1257 = 3116 :
   L1258 = 3119 :
   L1259 = 311B :
    L126 = 231B : 2310
   L1260 = 311E :
   L1261 = 3121 : 3116
   L1262 = 3124 :
   L1263 = 3127 :
   L1264 = 3127 : 311E
   L1265 = 312A :
   L1266 = 312D :
   L1267 = 313A :
   L1268 = 3140 :
   L1269 = 3143 :
    L127 = 231E :
   L1270 = 3145 :
   L1271 = 3148 :
   L1272 = 314B : 3140
   L1273 = 314E :
   L1274 = 3151 :
   L1275 = 3151 :
   L1276 = 3151 : 3148
   L1277 = 3154 :
   L1278 = 3161 :
   L1279 = 3163 :
    L128 = 2321 :
   L1280 = 316A :
   L1281 = 316D :
   L1282 = 316F :
   L1283 = 3172 :
   L1284 = 3175 : 316A
   L1285 = 3178 :
   L1286 = 317B :
   L1287 = 317B : 3172
   L1288 = 317E :
   L1289 = 318B :
    L129 = 2321 :
   L1290 = 3191 :
   L1291 = 3194 :
   L1292 = 3196 :
   L1293 = 3199 :
   L1294 = 319C : 3191
   L1295 = 319F :
   L1296 = 31A2 :
   L1297 = 31A2 : 3199
   L1298 = 31A5 :
   L1299 = 31B2 :
     L13 = 21D8 :
    L130 = 2321 : 2318
   L1300 = 31B8 :
   L1301 = 31BB :
   L1302 = 31BD :
   L1303 = 31C0 :
   L1304 = 31C3 : 31B8
   L1305 = 31C6 :
   L1306 = 31C9 :
   L1307 = 31C9 :
   L1308 = 31C9 :
   L1309 = 31C9 :
    L131 = 2324 :
   L1310 = 31C9 :
   L1311 = 31C9 : 31C0
   L1312 = 31CC :
   L1313 = 31CF :
   L1314 = 31D1 :
   L1315 = 31D3 :
   L1316 = 31D5 :
   L1317 = 31D8 :
   L1318 = 31DA :
   L1319 = 31DD :
    L132 = 2331 :
   L1320 = 31E0 : 31D5
   L1321 = 31E3 :
   L1322 = 31E6 :
   L1323 = 31E6 : 31DD
   L1324 = 31E9 :
   L1325 = 31EC :
   L1326 = 31EE :
   L1327 = 31F0 :
   L1328 = 31F2 :
   L1329 = 31F5 :
    L133 = 2333 :
   L1330 = 31F7 :
   L1331 = 31FA :
   L1332 = 31FD : 31F2
   L1333 = 3200 :
   L1334 = 3203 :
   L1335 = 3203 : 31FA
   L1336 = 3206 :
   L1337 = 3209 :
   L1338 = 320B :
   L1339 = 320D :
    L134 = 233A :
   L1340 = 320F :
   L1341 = 3212 :
   L1342 = 3214 :
   L1343 = 3217 :
   L1344 = 321A : 320F
   L1345 = 321D :
   L1346 = 3220 :
   L1347 = 3220 :
   L1348 = 3220 : 3217
   L1349 = 3223 :
    L135 = 233D :
   L1350 = 3227 :
   L1351 = 322B :
   L1352 = 3236 :
   L1353 = 323C :
   L1354 = 323F :
   L1355 = 3241 :
   L1356 = 3244 :
   L1357 = 3247 : 323C
   L1358 = 324A :
   L1359 = 324D :
    L136 = 233F :
   L1360 = 324D : 3244
   L1361 = 3250 :
   L1362 = 3254 :
   L1363 = 3258 :
   L1364 = 3263 :
   L1365 = 3269 :
   L1366 = 326C :
   L1367 = 326E :
   L1368 = 3271 :
   L1369 = 3274 : 3269
    L137 = 2342 :
   L1370 = 3277 :
   L1371 = 327A :
   L1372 = 327A : 3271
   L1373 = 327D :
   L1374 = 3281 :
   L1375 = 3285 :
   L1376 = 3290 :
   L1377 = 3296 :
   L1378 = 3299 :
   L1379 = 329B :
    L138 = 2345 : 233A
   L1380 = 329E :
   L1381 = 32A1 : 3296
   L1382 = 32A4 :
   L1383 = 32A7 :
   L1384 = 32A7 :
   L1385 = 32A7 : 329E
   L1386 = 32AA :
   L1387 = 32AD :
   L1388 = 32B1 :
   L1389 = 32B5 :
    L139 = 2348 :
   L1390 = 32B7 :
   L1391 = 32BE :
   L1392 = 32C1 :
   L1393 = 32C3 :
   L1394 = 32C6 :
   L1395 = 32C9 : 32BE
   L1396 = 32CC :
   L1397 = 32CF :
   L1398 = 32CF : 32C6
   L1399 = 32D2 :
     L14 = 21DA :
    L140 = 234B :
   L1400 = 32D5 :
   L1401 = 32D9 :
   L1402 = 32DB :
   L1403 = 32E1 :
   L1404 = 32E4 :
   L1405 = 32E6 :
   L1406 = 32E9 :
   L1407 = 32EC : 32E1
   L1408 = 32EF :
   L1409 = 32F2 :
    L141 = 234B : 2342
   L1410 = 32F2 : 32E9
   L1411 = 32F5 :
   L1412 = 32F8 :
   L1413 = 32FC :
   L1414 = 32FE :
   L1415 = 3304 :
   L1416 = 3307 :
   L1417 = 3309 :
   L1418 = 330C :
   L1419 = 330F : 3304
    L142 = 234E :
   L1420 = 3312 :
   L1421 = 3315 :
   L1422 = 3315 :
   L1423 = 3315 : 330C
   L1424 = 3318 :
   L1425 = 331A :
   L1426 = 331C :
   L1427 = 3320 :
   L1428 = 3322 :
   L1429 = 3329 :
    L143 = 235B :
   L1430 = 332C :
   L1431 = 332E :
   L1432 = 3331 :
   L1433 = 3334 : 3329
   L1434 = 3337 :
   L1435 = 333A :
   L1436 = 333A : 3331
   L1437 = 333D :
   L1438 = 333F :
   L1439 = 3341 :
    L144 = 2361 :
   L1440 = 3343 :
   L1441 = 3349 :
   L1442 = 334C :
   L1443 = 334E :
   L1444 = 3351 :
   L1445 = 3354 : 3349
   L1446 = 3357 :
   L1447 = 335A :
   L1448 = 335A : 3351
   L1449 = 335D :
    L145 = 2364 :
   L1450 = 335F :
   L1451 = 3361 :
   L1452 = 3363 :
   L1453 = 3369 :
   L1454 = 336C :
   L1455 = 336E :
   L1456 = 3371 :
   L1457 = 3374 : 3369
   L1458 = 3377 :
   L1459 = 337A :
    L146 = 2366 :
   L1460 = 337A :
   L1461 = 337A :
   L1462 = 337A :
   L1463 = 337A :
   L1464 = 337A : 3371
   L1465 = 337D :
   L1466 = 3382 :
   L1467 = 3384 :
   L1468 = 3387 :
   L1469 = 3389 :
    L147 = 2369 :
   L1470 = 338C :
   L1471 = 338F : 3384
   L1472 = 3392 :
   L1473 = 3395 :
   L1474 = 3395 : 338C
   L1475 = 3398 :
   L1476 = 339D :
   L1477 = 339F :
   L1478 = 33A2 :
   L1479 = 33A4 :
    L148 = 236C : 2361
   L1480 = 33A7 :
   L1481 = 33AA : 339F
   L1482 = 33AD :
   L1483 = 33B0 :
   L1484 = 33B0 : 33A7
   L1485 = 33B3 :
   L1486 = 33B8 :
   L1487 = 33BA :
   L1488 = 33BD :
   L1489 = 33BF :
    L149 = 236F :
   L1490 = 33C2 :
   L1491 = 33C5 : 33BA
   L1492 = 33C8 :
   L1493 = 33CB :
   L1494 = 33CB :
   L1495 = 33CB : 33C2
   L1496 = 33CE :
   L1497 = 33DC :
   L1498 = 33E2 :
   L1499 = 33E5 :
     L15 = 21DD :
    L150 = 2372 :
   L1500 = 33E7 :
   L1501 = 33EA :
   L1502 = 33ED : 33E2
   L1503 = 33F0 :
   L1504 = 33F3 :
   L1505 = 33F3 : 33EA
   L1506 = 33F6 :
   L1507 = 3404 :
   L1508 = 340A :
   L1509 = 340D :
    L151 = 2372 : 2369
   L1510 = 340F :
   L1511 = 3412 :
   L1512 = 3415 : 340A
   L1513 = 3418 :
   L1514 = 341B :
   L1515 = 341B : 3412
   L1516 = 341E :
   L1517 = 342C :
   L1518 = 3432 :
   L1519 = 3435 :
    L152 = 2375 :
   L1520 = 3437 :
   L1521 = 343A :
   L1522 = 343D : 3432
   L1523 = 3440 :
   L1524 = 3443 :
   L1525 = 3443 :
   L1526 = 3443 : 343A
   L1527 = 3446 :
   L1528 = 3449 :
   L1529 = 3457 :
    L153 = 2382 :
   L1530 = 3459 :
   L1531 = 3460 :
   L1532 = 3463 :
   L1533 = 3465 :
   L1534 = 3468 :
   L1535 = 346B : 3460
   L1536 = 346E :
   L1537 = 3471 :
   L1538 = 3471 : 3468
   L1539 = 3474 :
    L154 = 2388 :
   L1540 = 3477 :
   L1541 = 3485 :
   L1542 = 348B :
   L1543 = 348E :
   L1544 = 3490 :
   L1545 = 3493 :
   L1546 = 3496 : 348B
   L1547 = 3499 :
   L1548 = 349C :
   L1549 = 349C : 3493
    L155 = 238B :
   L1550 = 349F :
   L1551 = 34A2 :
   L1552 = 34B0 :
   L1553 = 34B6 :
   L1554 = 34B9 :
   L1555 = 34BB :
   L1556 = 34BE :
   L1557 = 34C1 : 34B6
   L1558 = 34C4 :
   L1559 = 34C7 :
    L156 = 238D :
   L1560 = 34C7 :
   L1561 = 34C7 : 34BE
   L1562 = 34CA :
   L1563 = 34D8 :
   L1564 = 34DA :
   L1565 = 34E1 :
   L1566 = 34E4 :
   L1567 = 34E6 :
   L1568 = 34E9 :
   L1569 = 34EC : 34E1
    L157 = 2390 :
   L1570 = 34EF :
   L1571 = 34F2 :
   L1572 = 34F2 : 34E9
   L1573 = 34F5 :
   L1574 = 3503 :
   L1575 = 3509 :
   L1576 = 350C :
   L1577 = 350E :
   L1578 = 3511 :
   L1579 = 3514 : 3509
    L158 = 2393 : 2388
   L1580 = 3517 :
   L1581 = 351A :
   L1582 = 351A : 3511
   L1583 = 351D :
   L1584 = 352B :
   L1585 = 3531 :
   L1586 = 3534 :
   L1587 = 3536 :
   L1588 = 3539 :
   L1589 = 353C : 3531
    L159 = 2396 :
   L1590 = 353F :
   L1591 = 3542 :
   L1592 = 3542 :
   L1593 = 3542 :
   L1594 = 3542 :
   L1595 = 3542 :
   L1596 = 3542 : 3539
   L1597 = 3545 :
   L1598 = 3547 :
   L1599 = 3549 :
     L16 = 21DD :
    L160 = 2399 :
   L1600 = 354C :
   L1601 = 354E :
   L1602 = 3551 :
   L1603 = 3554 : 3549
   L1604 = 3557 :
   L1605 = 355A :
   L1606 = 355A : 3551
   L1607 = 355D :
   L1608 = 355F :
   L1609 = 3561 :
    L161 = 2399 :
   L1610 = 3564 :
   L1611 = 3566 :
   L1612 = 3569 :
   L1613 = 356C : 3561
   L1614 = 356F :
   L1615 = 3572 :
   L1616 = 3572 : 3569
   L1617 = 3575 :
   L1618 = 3577 :
   L1619 = 3579 :
    L162 = 2399 :
   L1620 = 357C :
   L1621 = 357E :
   L1622 = 3581 :
   L1623 = 3584 : 3579
   L1624 = 3587 :
   L1625 = 358A :
   L1626 = 358A :
   L1627 = 358A : 3581
   L1628 = 358D :
   L1629 = 359A :
    L163 = 2399 :
   L1630 = 35A0 :
   L1631 = 35A3 :
   L1632 = 35A5 :
   L1633 = 35A8 :
   L1634 = 35AB : 35A0
   L1635 = 35AE :
   L1636 = 35B1 :
   L1637 = 35B1 : 35A8
   L1638 = 35B4 :
   L1639 = 35C1 :
    L164 = 2399 :
   L1640 = 35C7 :
   L1641 = 35CA :
   L1642 = 35CC :
   L1643 = 35CF :
   L1644 = 35D2 : 35C7
   L1645 = 35D5 :
   L1646 = 35D8 :
   L1647 = 35D8 : 35CF
   L1648 = 35DB :
   L1649 = 35E8 :
    L165 = 2399 : 2390
   L1650 = 35EE :
   L1651 = 35F1 :
   L1652 = 35F3 :
   L1653 = 35F6 :
   L1654 = 35F9 : 35EE
   L1655 = 35FC :
   L1656 = 35FF :
   L1657 = 35FF :
   L1658 = 35FF : 35F6
   L1659 = 3602 :
    L166 = 239B :
   L1660 = 3605 :
   L1661 = 3612 :
   L1662 = 3614 :
   L1663 = 361B :
   L1664 = 361E :
   L1665 = 3620 :
   L1666 = 3623 :
   L1667 = 3626 : 361B
   L1668 = 3629 :
   L1669 = 362C :
    L167 = 239E :
   L1670 = 362C : 3623
   L1671 = 362F :
   L1672 = 3632 :
   L1673 = 363F :
   L1674 = 3645 :
   L1675 = 3648 :
   L1676 = 364A :
   L1677 = 364D :
   L1678 = 3650 : 3645
   L1679 = 3653 :
    L168 = 23A0 :
   L1680 = 3656 :
   L1681 = 3656 : 364D
   L1682 = 3659 :
   L1683 = 365C :
   L1684 = 3669 :
   L1685 = 366F :
   L1686 = 3672 :
   L1687 = 3674 :
   L1688 = 3677 :
   L1689 = 367A : 366F
    L169 = 23A2 :
   L1690 = 367D :
   L1691 = 3680 :
   L1692 = 3680 :
   L1693 = 3680 : 3677
   L1694 = 3683 :
   L1695 = 3690 :
   L1696 = 3692 :
   L1697 = 3699 :
   L1698 = 369C :
   L1699 = 369E :
     L17 = 21E0 :
    L170 = 23A4 :
   L1700 = 36A1 :
   L1701 = 36A4 : 3699
   L1702 = 36A7 :
   L1703 = 36AA :
   L1704 = 36AA : 36A1
   L1705 = 36AD :
   L1706 = 36BA :
   L1707 = 36C0 :
   L1708 = 36C3 :
   L1709 = 36C5 :
    L171 = 23A7 :
   L1710 = 36C8 :
   L1711 = 36CB : 36C0
   L1712 = 36CE :
   L1713 = 36D1 :
   L1714 = 36D1 : 36C8
   L1715 = 36D4 :
   L1716 = 36E1 :
   L1717 = 36E7 :
   L1718 = 36EA :
   L1719 = 36EC :
    L172 = 23A9 :
   L1720 = 36EF :
   L1721 = 36F2 : 36E7
   L1722 = 36F5 :
   L1723 = 36F8 :
   L1724 = 36F8 :
   L1725 = 36F8 :
   L1726 = 36F8 :
   L1727 = 36F8 :
   L1728 = 36F8 : 36EF
   L1729 = 36FB :
    L173 = 23AC :
   L1730 = 36FD :
   L1731 = 36FF :
   L1732 = 3702 :
   L1733 = 3704 :
   L1734 = 3707 :
   L1735 = 370A : 36FF
   L1736 = 370D :
   L1737 = 3710 :
   L1738 = 3710 : 3707
   L1739 = 3713 :
    L174 = 23AF : 23A4
   L1740 = 3715 :
   L1741 = 3717 :
   L1742 = 371A :
   L1743 = 371C :
   L1744 = 371F :
   L1745 = 3722 : 3717
   L1746 = 3725 :
   L1747 = 3728 :
   L1748 = 3728 : 371F
   L1749 = 372B :
    L175 = 23B2 :
   L1750 = 372D :
   L1751 = 372F :
   L1752 = 3732 :
   L1753 = 3734 :
   L1754 = 3737 :
   L1755 = 373A : 372F
   L1756 = 373D :
   L1757 = 3740 :
   L1758 = 3740 :
   L1759 = 3740 : 3737
    L176 = 23B5 :
   L1760 = 3743 :
   L1761 = 3750 :
   L1762 = 3756 :
   L1763 = 3759 :
   L1764 = 375B :
   L1765 = 375E :
   L1766 = 3761 : 3756
   L1767 = 3764 :
   L1768 = 3767 :
   L1769 = 3767 : 375E
    L177 = 23B5 : 23AC
   L1770 = 376A :
   L1771 = 3777 :
   L1772 = 377D :
   L1773 = 3780 :
   L1774 = 3782 :
   L1775 = 3785 :
   L1776 = 3788 : 377D
   L1777 = 378B :
   L1778 = 378E :
   L1779 = 378E : 3785
    L178 = 23B7 :
   L1780 = 3791 :
   L1781 = 379E :
   L1782 = 37A4 :
   L1783 = 37A7 :
   L1784 = 37A9 :
   L1785 = 37AC :
   L1786 = 37AF : 37A4
   L1787 = 37B2 :
   L1788 = 37B5 :
   L1789 = 37B5 :
    L179 = 23BA :
   L1790 = 37B5 : 37AC
   L1791 = 37B8 :
   L1792 = 37BB :
   L1793 = 37C8 :
   L1794 = 37CA :
   L1795 = 37D1 :
   L1796 = 37D4 :
   L1797 = 37D6 :
   L1798 = 37D9 :
   L1799 = 37DC : 37D1
     L18 = 21E3 :
    L180 = 23BC :
   L1800 = 37DF :
   L1801 = 37E2 :
   L1802 = 37E2 : 37D9
   L1803 = 37E5 :
   L1804 = 37E8 :
   L1805 = 37F5 :
   L1806 = 37FB :
   L1807 = 37FE :
   L1808 = 3800 :
   L1809 = 3803 :
    L181 = 23BE :
   L1810 = 3806 : 37FB
   L1811 = 3809 :
   L1812 = 380C :
   L1813 = 380C : 3803
   L1814 = 380F :
   L1815 = 3812 :
   L1816 = 381F :
   L1817 = 3825 :
   L1818 = 3828 :
   L1819 = 382A :
    L182 = 23C0 :
   L1820 = 382D :
   L1821 = 3830 : 3825
   L1822 = 3833 :
   L1823 = 3836 :
   L1824 = 3836 :
   L1825 = 3836 : 382D
   L1826 = 3839 :
   L1827 = 3846 :
   L1828 = 3848 :
   L1829 = 384F :
    L183 = 23C3 :
   L1830 = 3852 :
   L1831 = 3854 :
   L1832 = 3857 :
   L1833 = 385A : 384F
   L1834 = 385D :
   L1835 = 3860 :
   L1836 = 3860 : 3857
   L1837 = 3863 :
   L1838 = 3870 :
   L1839 = 3876 :
    L184 = 23C5 :
   L1840 = 3879 :
   L1841 = 387B :
   L1842 = 387E :
   L1843 = 3881 : 3876
   L1844 = 3884 :
   L1845 = 3887 :
   L1846 = 3887 : 387E
   L1847 = 388A :
   L1848 = 3897 :
   L1849 = 389D :
    L185 = 23C8 :
   L1850 = 38A0 :
   L1851 = 38A2 :
   L1852 = 38A5 :
   L1853 = 38A8 : 389D
   L1854 = 38AB :
   L1855 = 38AE :
   L1856 = 38AE :
   L1857 = 38AE :
   L1858 = 38AE :
   L1859 = 38AE :
    L186 = 23CB : 23C0
   L1860 = 38AE : 38A5
   L1861 = 38B1 :
   L1862 = 38B4 :
   L1863 = 38B6 :
   L1864 = 38B8 :
   L1865 = 38BA :
   L1866 = 38BD :
   L1867 = 38BF :
   L1868 = 38C2 :
   L1869 = 38C5 : 38BA
    L187 = 23CE :
   L1870 = 38C8 :
   L1871 = 38CB :
   L1872 = 38CB : 38C2
   L1873 = 38CE :
   L1874 = 38D1 :
   L1875 = 38D3 :
   L1876 = 38D5 :
   L1877 = 38D7 :
   L1878 = 38DA :
   L1879 = 38DC :
    L188 = 23D1 :
   L1880 = 38DF :
   L1881 = 38E2 : 38D7
   L1882 = 38E5 :
   L1883 = 38E8 :
   L1884 = 38E8 : 38DF
   L1885 = 38EB :
   L1886 = 38EE :
   L1887 = 38F0 :
   L1888 = 38F2 :
   L1889 = 38F4 :
    L189 = 23D1 : 23C8
   L1890 = 38F7 :
   L1891 = 38F9 :
   L1892 = 38FC :
   L1893 = 38FF : 38F4
   L1894 = 3902 :
   L1895 = 3905 :
   L1896 = 3905 :
   L1897 = 3905 : 38FC
   L1898 = 3908 :
   L1899 = 390C :
     L19 = 21E3 :
    L190 = 23D3 :
   L1900 = 3910 :
   L1901 = 391B :
   L1902 = 3921 :
   L1903 = 3924 :
   L1904 = 3926 :
   L1905 = 3929 :
   L1906 = 392C : 3921
   L1907 = 392F :
   L1908 = 3932 :
   L1909 = 3932 : 3929
    L191 = 23D6 :
   L1910 = 3935 :
   L1911 = 3939 :
   L1912 = 393D :
   L1913 = 3948 :
   L1914 = 394E :
   L1915 = 3951 :
   L1916 = 3953 :
   L1917 = 3956 :
   L1918 = 3959 : 394E
   L1919 = 395C :
    L192 = 23D8 :
   L1920 = 395F :
   L1921 = 395F : 3956
   L1922 = 3962 :
   L1923 = 3966 :
   L1924 = 396A :
   L1925 = 3975 :
   L1926 = 397B :
   L1927 = 397E :
   L1928 = 3980 :
   L1929 = 3983 :
    L193 = 23DA :
   L1930 = 3986 : 397B
   L1931 = 3989 :
   L1932 = 398C :
   L1933 = 398C :
   L1934 = 398C : 3983
   L1935 = 398F :
   L1936 = 3992 :
   L1937 = 3996 :
   L1938 = 399A :
   L1939 = 399C :
    L194 = 23DC :
   L1940 = 39A3 :
   L1941 = 39A6 :
   L1942 = 39A8 :
   L1943 = 39AB :
   L1944 = 39AE : 39A3
   L1945 = 39B1 :
   L1946 = 39B4 :
   L1947 = 39B4 : 39AB
   L1948 = 39B7 :
   L1949 = 39BA :
    L195 = 23DF :
   L1950 = 39BE :
   L1951 = 39C0 :
   L1952 = 39C6 :
   L1953 = 39C9 :
   L1954 = 39CB :
   L1955 = 39CE :
   L1956 = 39D1 : 39C6
   L1957 = 39D4 :
   L1958 = 39D7 :
   L1959 = 39D7 : 39CE
    L196 = 23E1 :
   L1960 = 39DA :
   L1961 = 39DD :
   L1962 = 39E1 :
   L1963 = 39E3 :
   L1964 = 39E9 :
   L1965 = 39EC :
   L1966 = 39EE :
   L1967 = 39F1 :
   L1968 = 39F4 : 39E9
   L1969 = 39F7 :
    L197 = 23E4 :
   L1970 = 39FA :
   L1971 = 39FA :
   L1972 = 39FA : 39F1
   L1973 = 39FD :
   L1974 = 39FF :
   L1975 = 3A01 :
   L1976 = 3A05 :
   L1977 = 3A07 :
   L1978 = 3A0E :
   L1979 = 3A11 :
    L198 = 23E7 : 23DC
   L1980 = 3A13 :
   L1981 = 3A16 :
   L1982 = 3A19 : 3A0E
   L1983 = 3A1C :
   L1984 = 3A1F :
   L1985 = 3A1F : 3A16
   L1986 = 3A22 :
   L1987 = 3A24 :
   L1988 = 3A26 :
   L1989 = 3A28 :
    L199 = 23EA :
   L1990 = 3A2E :
   L1991 = 3A31 :
   L1992 = 3A33 :
   L1993 = 3A36 :
   L1994 = 3A39 : 3A2E
   L1995 = 3A3C :
   L1996 = 3A3F :
   L1997 = 3A3F : 3A36
   L1998 = 3A42 :
   L1999 = 3A44 :
      L2 = 21CE :
     L20 = 21E6 :
    L200 = 23ED :
   L2000 = 3A46 :
   L2001 = 3A48 :
   L2002 = 3A4E :
   L2003 = 3A51 :
   L2004 = 3A53 :
   L2005 = 3A56 :
   L2006 = 3A59 : 3A4E
   L2007 = 3A5C :
   L2008 = 3A5F :
   L2009 = 3A5F :
    L201 = 23ED :
   L2010 = 3A5F :
   L2011 = 3A5F :
   L2012 = 3A5F :
   L2013 = 3A5F : 3A56
   L2014 = 3A62 :
   L2015 = 3A67 :
   L2016 = 3A69 :
   L2017 = 3A6C :
   L2018 = 3A6E :
   L2019 = 3A71 :
    L202 = 23ED : 23E4
   L2020 = 3A74 : 3A69
   L2021 = 3A77 :
   L2022 = 3A7A :
   L2023 = 3A7A : 3A71
   L2024 = 3A7D :
   L2025 = 3A82 :
   L2026 = 3A84 :
   L2027 = 3A87 :
   L2028 = 3A89 :
   L2029 = 3A8C :
    L203 = 23F0 :
   L2030 = 3A8F : 3A84
   L2031 = 3A92 :
   L2032 = 3A95 :
   L2033 = 3A95 : 3A8C
   L2034 = 3A98 :
   L2035 = 3A9D :
   L2036 = 3A9F :
   L2037 = 3AA2 :
   L2038 = 3AA4 :
   L2039 = 3AA7 :
    L204 = 23F4 :
   L2040 = 3AAA : 3A9F
   L2041 = 3AAD :
   L2042 = 3AB0 :
   L2043 = 3AB0 :
   L2044 = 3AB0 : 3AA7
   L2045 = 3AB3 :
   L2046 = 3AC1 :
   L2047 = 3AC7 :
   L2048 = 3ACA :
   L2049 = 3ACC :
    L205 = 23F8 :
   L2050 = 3ACF :
   L2051 = 3AD2 : 3AC7
   L2052 = 3AD5 :
   L2053 = 3AD8 :
   L2054 = 3AD8 : 3ACF
   L2055 = 3ADB :
   L2056 = 3AE9 :
   L2057 = 3AEF :
   L2058 = 3AF2 :
   L2059 = 3AF4 :
    L206 = 2403 :
   L2060 = 3AF7 :
   L2061 = 3AFA : 3AEF
   L2062 = 3AFD :
   L2063 = 3B00 :
   L2064 = 3B00 : 3AF7
   L2065 = 3B03 :
   L2066 = 3B11 :
   L2067 = 3B17 :
   L2068 = 3B1A :
   L2069 = 3B1C :
    L207 = 2409 :
   L2070 = 3B1F :
   L2071 = 3B22 : 3B17
   L2072 = 3B25 :
   L2073 = 3B28 :
   L2074 = 3B28 :
   L2075 = 3B28 : 3B1F
   L2076 = 3B2B :
   L2077 = 3B2E :
   L2078 = 3B3C :
   L2079 = 3B3E :
    L208 = 240C :
   L2080 = 3B45 :
   L2081 = 3B48 :
   L2082 = 3B4A :
   L2083 = 3B4D :
   L2084 = 3B50 : 3B45
   L2085 = 3B53 :
   L2086 = 3B56 :
   L2087 = 3B56 : 3B4D
   L2088 = 3B59 :
   L2089 = 3B5C :
    L209 = 240E :
   L2090 = 3B6A :
   L2091 = 3B70 :
   L2092 = 3B73 :
   L2093 = 3B75 :
   L2094 = 3B78 :
   L2095 = 3B7B : 3B70
   L2096 = 3B7E :
   L2097 = 3B81 :
   L2098 = 3B81 : 3B78
   L2099 = 3B84 :
     L21 = 21E9 :
    L210 = 2411 :
   L2100 = 3B87 :
   L2101 = 3B95 :
   L2102 = 3B9B :
   L2103 = 3B9E :
   L2104 = 3BA0 :
   L2105 = 3BA3 :
   L2106 = 3BA6 : 3B9B
   L2107 = 3BA9 :
   L2108 = 3BAC :
   L2109 = 3BAC :
    L211 = 2414 : 2409
   L2110 = 3BAC : 3BA3
   L2111 = 3BAF :
   L2112 = 3BBD :
   L2113 = 3BBF :
   L2114 = 3BC6 :
   L2115 = 3BC9 :
   L2116 = 3BCB :
   L2117 = 3BCE :
   L2118 = 3BD1 : 3BC6
   L2119 = 3BD4 :
    L212 = 2417 :
   L2120 = 3BD7 :
   L2121 = 3BD7 : 3BCE
   L2122 = 3BDA :
   L2123 = 3BE8 :
   L2124 = 3BEE :
   L2125 = 3BF1 :
   L2126 = 3BF3 :
   L2127 = 3BF6 :
   L2128 = 3BF9 : 3BEE
   L2129 = 3BFC :
    L213 = 241A :
   L2130 = 3BFF :
   L2131 = 3BFF : 3BF6
   L2132 = 3C02 :
   L2133 = 3C10 :
   L2134 = 3C16 :
   L2135 = 3C19 :
   L2136 = 3C1B :
   L2137 = 3C1E :
   L2138 = 3C21 : 3C16
   L2139 = 3C24 :
    L214 = 241A : 2411
   L2140 = 3C27 :
   L2141 = 3C27 :
   L2142 = 3C27 :
   L2143 = 3C27 :
   L2144 = 3C27 :
   L2145 = 3C27 : 3C1E
   L2146 = 3C29 :
   L2147 = 3C2B :
   L2148 = 3C2D :
   L2149 = 3C30 :
    L215 = 241D :
   L2150 = 3C32 :
   L2151 = 3C35 :
   L2152 = 3C38 : 3C2D
   L2153 = 3C3B :
   L2154 = 3C3E :
   L2155 = 3C3E : 3C35
   L2156 = 3C40 :
   L2157 = 3C42 :
   L2158 = 3C44 :
   L2159 = 3C47 :
    L216 = 2421 :
   L2160 = 3C49 :
   L2161 = 3C4C :
   L2162 = 3C4F : 3C44
   L2163 = 3C52 :
   L2164 = 3C55 :
   L2165 = 3C55 : 3C4C
   L2166 = 3C57 :
   L2167 = 3C59 :
   L2168 = 3C5B :
   L2169 = 3C5E :
    L217 = 2425 :
   L2170 = 3C60 :
   L2171 = 3C63 :
   L2172 = 3C66 : 3C5B
   L2173 = 3C69 :
   L2174 = 3C6C :
   L2175 = 3C6C :
   L2176 = 3C6C : 3C63
   L2177 = 3C6F :
   L2178 = 3C7C :
   L2179 = 3C82 :
    L218 = 2430 :
   L2180 = 3C85 :
   L2181 = 3C87 :
   L2182 = 3C8A :
   L2183 = 3C8D : 3C82
   L2184 = 3C90 :
   L2185 = 3C93 :
   L2186 = 3C93 : 3C8A
   L2187 = 3C96 :
   L2188 = 3CA3 :
   L2189 = 3CA9 :
    L219 = 2436 :
   L2190 = 3CAC :
   L2191 = 3CAE :
   L2192 = 3CB1 :
   L2193 = 3CB4 : 3CA9
   L2194 = 3CB7 :
   L2195 = 3CBA :
   L2196 = 3CBA : 3CB1
   L2197 = 3CBD :
   L2198 = 3CCA :
   L2199 = 3CD0 :
     L22 = 21E9 :
    L220 = 2439 :
   L2200 = 3CD3 :
   L2201 = 3CD5 :
   L2202 = 3CD8 :
   L2203 = 3CDB : 3CD0
   L2204 = 3CDE :
   L2205 = 3CE1 :
   L2206 = 3CE1 :
   L2207 = 3CE1 : 3CD8
   L2208 = 3CE3 :
   L2209 = 3CE6 :
    L221 = 243B :
   L2210 = 3CF3 :
   L2211 = 3CF5 :
   L2212 = 3CFC :
   L2213 = 3CFF :
   L2214 = 3D01 :
   L2215 = 3D04 :
   L2216 = 3D07 : 3CFC
   L2217 = 3D0A :
   L2218 = 3D0D :
   L2219 = 3D0D : 3D04
    L222 = 243E :
   L2220 = 3D0F :
   L2221 = 3D12 :
   L2222 = 3D1F :
   L2223 = 3D25 :
   L2224 = 3D28 :
   L2225 = 3D2A :
   L2226 = 3D2D :
   L2227 = 3D30 : 3D25
   L2228 = 3D33 :
   L2229 = 3D36 :
    L223 = 2441 : 2436
   L2230 = 3D36 : 3D2D
   L2231 = 3D38 :
   L2232 = 3D3B :
   L2233 = 3D48 :
   L2234 = 3D4E :
   L2235 = 3D51 :
   L2236 = 3D53 :
   L2237 = 3D56 :
   L2238 = 3D59 : 3D4E
   L2239 = 3D5C :
    L224 = 2444 :
   L2240 = 3D5F :
   L2241 = 3D5F :
   L2242 = 3D5F : 3D56
   L2243 = 3D62 :
   L2244 = 3D6F :
   L2245 = 3D71 :
   L2246 = 3D78 :
   L2247 = 3D7B :
   L2248 = 3D7D :
   L2249 = 3D80 :
    L225 = 2447 :
   L2250 = 3D83 : 3D78
   L2251 = 3D86 :
   L2252 = 3D89 :
   L2253 = 3D89 : 3D80
   L2254 = 3D8C :
   L2255 = 3D99 :
   L2256 = 3D9F :
   L2257 = 3DA2 :
   L2258 = 3DA4 :
   L2259 = 3DA7 :
    L226 = 2447 : 243E
   L2260 = 3DAA : 3D9F
   L2261 = 3DAD :
   L2262 = 3DB0 :
   L2263 = 3DB0 : 3DA7
   L2264 = 3DB3 :
   L2265 = 3DC0 :
   L2266 = 3DC6 :
   L2267 = 3DC9 :
   L2268 = 3DCB :
   L2269 = 3DCE :
    L227 = 244A :
   L2270 = 3DD1 : 3DC6
   L2271 = 3DD4 :
   L2272 = 3DD7 :
   L2273 = 3DD7 :
   L2274 = 3DD7 : 3DCE
   L2275 = 3DDA :
   L2276 = 3DDD :
   L2277 = 3DDD :
   L2278 = 3DE0 :
    L228 = 244E :
    L229 = 2452 :
     L23 = 21E9 :
    L230 = 245D :
    L231 = 2463 :
    L232 = 2466 :
    L233 = 2468 :
    L234 = 246B :
    L235 = 246E : 2463
    L236 = 2471 :
    L237 = 2474 :
    L238 = 2474 :
    L239 = 2474 : 246B
     L24 = 21E9 :
    L240 = 2476 :
    L241 = 2479 :
    L242 = 247D :
    L243 = 2481 :
    L244 = 2483 :
    L245 = 248A :
    L246 = 248D :
    L247 = 248F :
    L248 = 2492 :
    L249 = 2495 : 248A
     L25 = 21E9 :
    L250 = 2498 :
    L251 = 249B :
    L252 = 249B : 2492
    L253 = 249D :
    L254 = 24A0 :
    L255 = 24A4 :
    L256 = 24A6 :
    L257 = 24AC :
    L258 = 24AF :
    L259 = 24B1 :
     L26 = 21E9 :
    L260 = 24B4 :
    L261 = 24B7 : 24AC
    L262 = 24BA :
    L263 = 24BD :
    L264 = 24BD : 24B4
    L265 = 24BF :
    L266 = 24C2 :
    L267 = 24C6 :
    L268 = 24C8 :
    L269 = 24CE :
     L27 = 21E9 :
    L270 = 24D1 :
    L271 = 24D3 :
    L272 = 24D6 :
    L273 = 24D9 : 24CE
    L274 = 24DC :
    L275 = 24DF :
    L276 = 24DF :
    L277 = 24DF : 24D6
    L278 = 24E2 :
    L279 = 24E4 :
     L28 = 21E9 :
    L280 = 24E6 :
    L281 = 24EA :
    L282 = 24EC :
    L283 = 24F3 :
    L284 = 24F6 :
    L285 = 24F8 :
    L286 = 24FB :
    L287 = 24FE : 24F3
    L288 = 2501 :
    L289 = 2504 :
     L29 = 21E9 :
    L290 = 2504 : 24FB
    L291 = 2507 :
    L292 = 2509 :
    L293 = 250B :
    L294 = 250D :
    L295 = 2513 :
    L296 = 2516 :
    L297 = 2518 :
    L298 = 251B :
    L299 = 251E : 2513
      L3 = 21CE :
     L30 = 21E9 :
    L300 = 2521 :
    L301 = 2524 :
    L302 = 2524 : 251B
    L303 = 2527 :
    L304 = 2529 :
    L305 = 252B :
    L306 = 252D :
    L307 = 2533 :
    L308 = 2536 :
    L309 = 2538 :
     L31 = 21EB :
    L310 = 253B :
    L311 = 253E : 2533
    L312 = 2541 :
    L313 = 2544 :
    L314 = 2544 :
    L315 = 2544 :
    L316 = 2544 :
    L317 = 2544 :
    L318 = 2544 : 253B
    L319 = 2546 :
     L32 = 21ED :
    L320 = 254B :
    L321 = 254D :
    L322 = 2550 :
    L323 = 2552 :
    L324 = 2555 :
    L325 = 2558 : 254D
    L326 = 255B :
    L327 = 255E :
    L328 = 255E : 2555
    L329 = 2560 :
     L33 = 21EF :
    L330 = 2565 :
    L331 = 2567 :
    L332 = 256A :
    L333 = 256C :
    L334 = 256F :
    L335 = 2572 : 2567
    L336 = 2575 :
    L337 = 2578 :
    L338 = 2578 : 256F
    L339 = 257A :
     L34 = 21F2 :
    L340 = 257F :
    L341 = 2581 :
    L342 = 2584 :
    L343 = 2586 :
    L344 = 2589 :
    L345 = 258C : 2581
    L346 = 258F :
    L347 = 2592 :
    L348 = 2592 :
    L349 = 2592 : 2589
     L35 = 21F4 :
    L350 = 2595 :
    L351 = 25A3 :
    L352 = 25A9 :
    L353 = 25AC :
    L354 = 25AE :
    L355 = 25B1 :
    L356 = 25B4 : 25A9
    L357 = 25B7 :
    L358 = 25BA :
    L359 = 25BA : 25B1
     L36 = 21F7 :
    L360 = 25BD :
    L361 = 25CB :
    L362 = 25D1 :
    L363 = 25D4 :
    L364 = 25D6 :
    L365 = 25D9 :
    L366 = 25DC : 25D1
    L367 = 25DF :
    L368 = 25E2 :
    L369 = 25E2 : 25D9
     L37 = 21FA : 21EF
    L370 = 25E5 :
    L371 = 25F3 :
    L372 = 25F9 :
    L373 = 25FC :
    L374 = 25FE :
    L375 = 2601 :
    L376 = 2604 : 25F9
    L377 = 2607 :
    L378 = 260A :
    L379 = 260A :
     L38 = 21FD :
    L380 = 260A : 2601
    L381 = 260C :
    L382 = 260F :
    L383 = 261D :
    L384 = 261F :
    L385 = 2626 :
    L386 = 2629 :
    L387 = 262B :
    L388 = 262E :
    L389 = 2631 : 2626
     L39 = 2200 :
    L390 = 2634 :
    L391 = 2637 :
    L392 = 2637 : 262E
    L393 = 2639 :
    L394 = 263C :
    L395 = 264A :
    L396 = 2650 :
    L397 = 2653 :
    L398 = 2655 :
    L399 = 2658 :
      L4 = 21D0 :
     L40 = 2200 : 21F7
    L400 = 265B : 2650
    L401 = 265E :
    L402 = 2661 :
    L403 = 2661 : 2658
    L404 = 2663 :
    L405 = 2666 :
    L406 = 2674 :
    L407 = 267A :
    L408 = 267D :
    L409 = 267F :
     L41 = 2202 :
    L410 = 2682 :
    L411 = 2685 : 267A
    L412 = 2688 :
    L413 = 268B :
    L414 = 268B :
    L415 = 268B : 2682
    L416 = 268E :
    L417 = 269C :
    L418 = 269E :
    L419 = 26A5 :
     L42 = 2204 :
    L420 = 26A8 :
    L421 = 26AA :
    L422 = 26AD :
    L423 = 26B0 : 26A5
    L424 = 26B3 :
    L425 = 26B6 :
    L426 = 26B6 : 26AD
    L427 = 26B9 :
    L428 = 26C7 :
    L429 = 26CD :
     L43 = 2206 :
    L430 = 26D0 :
    L431 = 26D2 :
    L432 = 26D5 :
    L433 = 26D8 : 26CD
    L434 = 26DB :
    L435 = 26DE :
    L436 = 26DE : 26D5
    L437 = 26E1 :
    L438 = 26EF :
    L439 = 26F5 :
     L44 = 2209 :
    L440 = 26F8 :
    L441 = 26FA :
    L442 = 26FD :
    L443 = 2700 : 26F5
    L444 = 2703 :
    L445 = 2706 :
    L446 = 2706 :
    L447 = 2706 :
    L448 = 2706 :
    L449 = 2706 :
     L45 = 220B :
    L450 = 2706 : 26FD
    L451 = 2708 :
    L452 = 270A :
    L453 = 270C :
    L454 = 270F :
    L455 = 2711 :
    L456 = 2714 :
    L457 = 2717 : 270C
    L458 = 271A :
    L459 = 271D :
     L46 = 220E :
    L460 = 271D : 2714
    L461 = 271F :
    L462 = 2721 :
    L463 = 2723 :
    L464 = 2726 :
    L465 = 2728 :
    L466 = 272B :
    L467 = 272E : 2723
    L468 = 2731 :
    L469 = 2734 :
     L47 = 2211 : 2206
    L470 = 2734 : 272B
    L471 = 2736 :
    L472 = 2738 :
    L473 = 273A :
    L474 = 273D :
    L475 = 273F :
    L476 = 2742 :
    L477 = 2745 : 273A
    L478 = 2748 :
    L479 = 274B :
     L48 = 2214 :
    L480 = 274B :
    L481 = 274B : 2742
    L482 = 274E :
    L483 = 275B :
    L484 = 2761 :
    L485 = 2764 :
    L486 = 2766 :
    L487 = 2769 :
    L488 = 276C : 2761
    L489 = 276F :
     L49 = 2217 :
    L490 = 2772 :
    L491 = 2772 : 2769
    L492 = 2775 :
    L493 = 2782 :
    L494 = 2788 :
    L495 = 278B :
    L496 = 278D :
    L497 = 2790 :
    L498 = 2793 : 2788
    L499 = 2796 :
      L5 = 21D3 :
     L50 = 2217 : 220E
    L500 = 2799 :
    L501 = 2799 : 2790
    L502 = 279C :
    L503 = 27A9 :
    L504 = 27AF :
    L505 = 27B2 :
    L506 = 27B4 :
    L507 = 27B7 :
    L508 = 27BA : 27AF
    L509 = 27BD :
     L51 = 2219 :
    L510 = 27C0 :
    L511 = 27C0 :
    L512 = 27C0 : 27B7
    L513 = 27C2 :
    L514 = 27C5 :
    L515 = 27D2 :
    L516 = 27D4 :
    L517 = 27DB :
    L518 = 27DE :
    L519 = 27E0 :
     L52 = 221B :
    L520 = 27E3 :
    L521 = 27E6 : 27DB
    L522 = 27E9 :
    L523 = 27EC :
    L524 = 27EC : 27E3
    L525 = 27EE :
    L526 = 27F1 :
    L527 = 27FE :
    L528 = 2804 :
    L529 = 2807 :
     L53 = 221D :
    L530 = 2809 :
    L531 = 280C :
    L532 = 280F : 2804
    L533 = 2812 :
    L534 = 2815 :
    L535 = 2815 : 280C
    L536 = 2817 :
    L537 = 281A :
    L538 = 2827 :
    L539 = 282D :
     L54 = 2220 :
    L540 = 2830 :
    L541 = 2832 :
    L542 = 2835 :
    L543 = 2838 : 282D
    L544 = 283B :
    L545 = 283E :
    L546 = 283E :
    L547 = 283E : 2835
    L548 = 2841 :
    L549 = 284E :
     L55 = 2222 :
    L550 = 2850 :
    L551 = 2857 :
    L552 = 285A :
    L553 = 285C :
    L554 = 285F :
    L555 = 2862 : 2857
    L556 = 2865 :
    L557 = 2868 :
    L558 = 2868 : 285F
    L559 = 286B :
     L56 = 2225 :
    L560 = 2878 :
    L561 = 287E :
    L562 = 2881 :
    L563 = 2883 :
    L564 = 2886 :
    L565 = 2889 : 287E
    L566 = 288C :
    L567 = 288F :
    L568 = 288F : 2886
    L569 = 2892 :
     L57 = 2228 : 221D
    L570 = 289F :
    L571 = 28A5 :
    L572 = 28A8 :
    L573 = 28AA :
    L574 = 28AD :
    L575 = 28B0 : 28A5
    L576 = 28B3 :
    L577 = 28B6 :
    L578 = 28B6 :
    L579 = 28B6 :
     L58 = 222B :
    L580 = 28B6 :
    L581 = 28B6 :
    L582 = 28B6 : 28AD
    L583 = 28B8 :
    L584 = 28BA :
    L585 = 28BC :
    L586 = 28BE :
    L587 = 28C1 :
    L588 = 28C3 :
    L589 = 28C6 :
     L59 = 222E :
    L590 = 28C9 : 28BE
    L591 = 28CC :
    L592 = 28CF :
    L593 = 28CF : 28C6
    L594 = 28D1 :
    L595 = 28D3 :
    L596 = 28D5 :
    L597 = 28D7 :
    L598 = 28DA :
    L599 = 28DC :
      L6 = 21D3 :
     L60 = 222E :
    L600 = 28DF :
    L601 = 28E2 : 28D7
    L602 = 28E5 :
    L603 = 28E8 :
    L604 = 28E8 : 28DF
    L605 = 28EA :
    L606 = 28EC :
    L607 = 28EE :
    L608 = 28F0 :
    L609 = 28F3 :
     L61 = 222E : 2225
    L610 = 28F5 :
    L611 = 28F8 :
    L612 = 28FB : 28F0
    L613 = 28FE :
    L614 = 2901 :
    L615 = 2901 :
    L616 = 2901 : 28F8
    L617 = 2904 :
    L618 = 2908 :
    L619 = 2915 :
     L62 = 2231 :
    L620 = 291B :
    L621 = 291E :
    L622 = 2920 :
    L623 = 2923 :
    L624 = 2926 : 291B
    L625 = 2929 :
    L626 = 292C :
    L627 = 292C : 2923
    L628 = 292F :
    L629 = 2933 :
     L63 = 223E :
    L630 = 2940 :
    L631 = 2946 :
    L632 = 2949 :
    L633 = 294B :
    L634 = 294E :
    L635 = 2951 : 2946
    L636 = 2954 :
    L637 = 2957 :
    L638 = 2957 : 294E
    L639 = 295A :
     L64 = 2244 :
    L640 = 295E :
    L641 = 296B :
    L642 = 2971 :
    L643 = 2974 :
    L644 = 2976 :
    L645 = 2979 :
    L646 = 297C : 2971
    L647 = 297F :
    L648 = 2982 :
    L649 = 2982 :
     L65 = 2247 :
    L650 = 2982 : 2979
    L651 = 2984 :
    L652 = 2986 :
    L653 = 2989 :
    L654 = 2996 :
    L655 = 2998 :
    L656 = 299F :
    L657 = 29A2 :
    L658 = 29A4 :
    L659 = 29A7 :
     L66 = 2249 :
    L660 = 29AA : 299F
    L661 = 29AD :
    L662 = 29B0 :
    L663 = 29B0 : 29A7
    L664 = 29B2 :
    L665 = 29B4 :
    L666 = 29B7 :
    L667 = 29C4 :
    L668 = 29CA :
    L669 = 29CD :
     L67 = 224C :
    L670 = 29CF :
    L671 = 29D2 :
    L672 = 29D5 : 29CA
    L673 = 29D8 :
    L674 = 29DB :
    L675 = 29DB : 29D2
    L676 = 29DD :
    L677 = 29DF :
    L678 = 29E2 :
    L679 = 29EF :
     L68 = 224F : 2244
    L680 = 29F5 :
    L681 = 29F8 :
    L682 = 29FA :
    L683 = 29FD :
    L684 = 2A00 : 29F5
    L685 = 2A03 :
    L686 = 2A06 :
    L687 = 2A06 :
    L688 = 2A06 : 29FD
    L689 = 2A09 :
     L69 = 2252 :
    L690 = 2A0D :
    L691 = 2A1A :
    L692 = 2A1C :
    L693 = 2A23 :
    L694 = 2A26 :
    L695 = 2A28 :
    L696 = 2A2B :
    L697 = 2A2E : 2A23
    L698 = 2A31 :
    L699 = 2A34 :
      L7 = 21D3 :
     L70 = 2255 :
    L700 = 2A34 : 2A2B
    L701 = 2A37 :
    L702 = 2A3B :
    L703 = 2A48 :
    L704 = 2A4E :
    L705 = 2A51 :
    L706 = 2A53 :
    L707 = 2A56 :
    L708 = 2A59 : 2A4E
    L709 = 2A5C :
     L71 = 2255 :
    L710 = 2A5F :
    L711 = 2A5F : 2A56
    L712 = 2A62 :
    L713 = 2A66 :
    L714 = 2A73 :
    L715 = 2A79 :
    L716 = 2A7C :
    L717 = 2A7E :
    L718 = 2A81 :
    L719 = 2A84 : 2A79
     L72 = 2255 : 224C
    L720 = 2A87 :
    L721 = 2A8A :
    L722 = 2A8A :
    L723 = 2A8A :
    L724 = 2A8A :
    L725 = 2A8A :
    L726 = 2A8A : 2A81
    L727 = 2A8C :
    L728 = 2A8E :
    L729 = 2A91 :
     L73 = 2258 :
    L730 = 2A93 :
    L731 = 2A95 :
    L732 = 2A97 :
    L733 = 2A9A :
    L734 = 2A9C :
    L735 = 2A9F :
    L736 = 2AA2 : 2A97
    L737 = 2AA5 :
    L738 = 2AA8 :
    L739 = 2AA8 : 2A9F
     L74 = 2265 :
    L740 = 2AAA :
    L741 = 2AAC :
    L742 = 2AAF :
    L743 = 2AB1 :
    L744 = 2AB3 :
    L745 = 2AB5 :
    L746 = 2AB8 :
    L747 = 2ABA :
    L748 = 2ABD :
    L749 = 2AC0 : 2AB5
     L75 = 226B :
    L750 = 2AC3 :
    L751 = 2AC6 :
    L752 = 2AC6 : 2ABD
    L753 = 2AC8 :
    L754 = 2ACA :
    L755 = 2ACD :
    L756 = 2ACF :
    L757 = 2AD1 :
    L758 = 2AD3 :
    L759 = 2AD6 :
     L76 = 226E :
    L760 = 2AD8 :
    L761 = 2ADB :
    L762 = 2ADE : 2AD3
    L763 = 2AE1 :
    L764 = 2AE4 :
    L765 = 2AE4 :
    L766 = 2AE4 : 2ADB
    L767 = 2AE7 :
    L768 = 2AEB :
    L769 = 2AEF :
     L77 = 2270 :
    L770 = 2AF3 :
    L771 = 2AFE :
    L772 = 2B04 :
    L773 = 2B07 :
    L774 = 2B09 :
    L775 = 2B0C :
    L776 = 2B0F : 2B04
    L777 = 2B12 :
    L778 = 2B15 :
    L779 = 2B15 : 2B0C
     L78 = 2273 :
    L780 = 2B18 :
    L781 = 2B1C :
    L782 = 2B20 :
    L783 = 2B24 :
    L784 = 2B2F :
    L785 = 2B35 :
    L786 = 2B38 :
    L787 = 2B3A :
    L788 = 2B3D :
    L789 = 2B40 : 2B35
     L79 = 2276 : 226B
    L790 = 2B43 :
    L791 = 2B46 :
    L792 = 2B46 : 2B3D
    L793 = 2B49 :
    L794 = 2B4D :
    L795 = 2B51 :
    L796 = 2B55 :
    L797 = 2B60 :
    L798 = 2B66 :
    L799 = 2B69 :
      L8 = 21D3 :
     L80 = 2279 :
    L800 = 2B6B :
    L801 = 2B6E :
    L802 = 2B71 : 2B66
    L803 = 2B74 :
    L804 = 2B77 :
    L805 = 2B77 :
    L806 = 2B77 : 2B6E
    L807 = 2B79 :
    L808 = 2B7B :
    L809 = 2B7E :
     L81 = 227C :
    L810 = 2B82 :
    L811 = 2B86 :
    L812 = 2B88 :
    L813 = 2B8F :
    L814 = 2B92 :
    L815 = 2B94 :
    L816 = 2B97 :
    L817 = 2B9A : 2B8F
    L818 = 2B9D :
    L819 = 2BA0 :
     L82 = 227C :
    L820 = 2BA0 : 2B97
    L821 = 2BA2 :
    L822 = 2BA4 :
    L823 = 2BA7 :
    L824 = 2BAB :
    L825 = 2BAD :
    L826 = 2BB3 :
    L827 = 2BB6 :
    L828 = 2BB8 :
    L829 = 2BBB :
     L83 = 227C : 2273
    L830 = 2BBE : 2BB3
    L831 = 2BC1 :
    L832 = 2BC4 :
    L833 = 2BC4 : 2BBB
    L834 = 2BC6 :
    L835 = 2BC8 :
    L836 = 2BCB :
    L837 = 2BCF :
    L838 = 2BD1 :
    L839 = 2BD7 :
     L84 = 227F :
    L840 = 2BDA :
    L841 = 2BDC :
    L842 = 2BDF :
    L843 = 2BE2 : 2BD7
    L844 = 2BE5 :
    L845 = 2BE8 :
    L846 = 2BE8 :
    L847 = 2BE8 : 2BDF
    L848 = 2BEB :
    L849 = 2BEF :
     L85 = 228C :
    L850 = 2BF1 :
    L851 = 2BF3 :
    L852 = 2BF7 :
    L853 = 2BF9 :
    L854 = 2C00 :
    L855 = 2C03 :
    L856 = 2C05 :
    L857 = 2C08 :
    L858 = 2C0B : 2C00
    L859 = 2C0E :
     L86 = 2292 :
    L860 = 2C11 :
    L861 = 2C11 : 2C08
    L862 = 2C14 :
    L863 = 2C18 :
    L864 = 2C1A :
    L865 = 2C1C :
    L866 = 2C1E :
    L867 = 2C24 :
    L868 = 2C27 :
    L869 = 2C29 :
     L87 = 2295 :
    L870 = 2C2C :
    L871 = 2C2F : 2C24
    L872 = 2C32 :
    L873 = 2C35 :
    L874 = 2C35 : 2C2C
    L875 = 2C38 :
    L876 = 2C3C :
    L877 = 2C3E :
    L878 = 2C40 :
    L879 = 2C42 :
     L88 = 2297 :
    L880 = 2C48 :
    L881 = 2C4B :
    L882 = 2C4D :
    L883 = 2C50 :
    L884 = 2C53 : 2C48
    L885 = 2C56 :
    L886 = 2C59 :
    L887 = 2C59 :
    L888 = 2C59 :
    L889 = 2C59 :
     L89 = 229A :
    L890 = 2C59 :
    L891 = 2C59 : 2C50
    L892 = 2C5B :
    L893 = 2C5D :
    L894 = 2C62 :
    L895 = 2C64 :
    L896 = 2C67 :
    L897 = 2C69 :
    L898 = 2C6C :
    L899 = 2C6F : 2C64
      L9 = 21D3 :
     L90 = 229D : 2292
    L900 = 2C72 :
    L901 = 2C75 :
    L902 = 2C75 : 2C6C
    L903 = 2C77 :
    L904 = 2C79 :
    L905 = 2C7E :
    L906 = 2C80 :
    L907 = 2C83 :
    L908 = 2C85 :
    L909 = 2C88 :
     L91 = 22A0 :
    L910 = 2C8B : 2C80
    L911 = 2C8E :
    L912 = 2C91 :
    L913 = 2C91 : 2C88
    L914 = 2C93 :
    L915 = 2C95 :
    L916 = 2C9A :
    L917 = 2C9C :
    L918 = 2C9F :
    L919 = 2CA1 :
     L92 = 22A3 :
    L920 = 2CA4 :
    L921 = 2CA7 : 2C9C
    L922 = 2CAA :
    L923 = 2CAD :
    L924 = 2CAD :
    L925 = 2CAD : 2CA4
    L926 = 2CB0 :
    L927 = 2CB4 :
    L928 = 2CC2 :
    L929 = 2CC8 :
     L93 = 22A3 :
    L930 = 2CCB :
    L931 = 2CCD :
    L932 = 2CD0 :
    L933 = 2CD3 : 2CC8
    L934 = 2CD6 :
    L935 = 2CD9 :
    L936 = 2CD9 : 2CD0
    L937 = 2CDC :
    L938 = 2CE0 :
    L939 = 2CEE :
     L94 = 22A3 :
    L940 = 2CF4 :
    L941 = 2CF7 :
    L942 = 2CF9 :
    L943 = 2CFC :
    L944 = 2CFF : 2CF4
    L945 = 2D02 :
    L946 = 2D05 :
    L947 = 2D05 : 2CFC
    L948 = 2D08 :
    L949 = 2D0C :
     L95 = 22A3 : 229A
    L950 = 2D1A :
    L951 = 2D20 :
    L952 = 2D23 :
    L953 = 2D25 :
    L954 = 2D28 :
    L955 = 2D2B : 2D20
    L956 = 2D2E :
    L957 = 2D31 :
    L958 = 2D31 :
    L959 = 2D31 : 2D28
     L96 = 22A5 :
    L960 = 2D33 :
    L961 = 2D35 :
    L962 = 2D38 :
    L963 = 2D46 :
    L964 = 2D48 :
    L965 = 2D4F :
    L966 = 2D52 :
    L967 = 2D54 :
    L968 = 2D57 :
    L969 = 2D5A : 2D4F
     L97 = 22A8 :
    L970 = 2D5D :
    L971 = 2D60 :
    L972 = 2D60 : 2D57
    L973 = 2D62 :
    L974 = 2D64 :
    L975 = 2D67 :
    L976 = 2D75 :
    L977 = 2D7B :
    L978 = 2D7E :
    L979 = 2D80 :
     L98 = 22B5 :
    L980 = 2D83 :
    L981 = 2D86 : 2D7B
    L982 = 2D89 :
    L983 = 2D8C :
    L984 = 2D8C : 2D83
    L985 = 2D8E :
    L986 = 2D90 :
    L987 = 2D93 :
    L988 = 2DA1 :
    L989 = 2DA7 :
     L99 = 22B7 :
    L990 = 2DAA :
    L991 = 2DAC :
    L992 = 2DAF :
    L993 = 2DB2 : 2DA7
    L994 = 2DB5 :
    L995 = 2DB8 :
    L996 = 2DB8 :
    L997 = 2DB8 : 2DAF
    L998 = 2DBB :
    L999 = 2DBF :
  WAIT1M = 2018 : 2007 2011
 WAIT1M2 = 201D : 2020
   div16 = 2123 :
 div16_1 = 212C : 213B
 div16_2 = 213A : 2135
 div16_3 = 213B : 2138
 div16_8 = 2143 : 21AA
div16_82 = 2148 : 2150
div16_83 = 2150 : 214C
    div8 = 2154 : 2177
  div8_1 = 215C : 2167
 div8_16 = 216E :
div8_161 = 2175 : 2171
  div8_2 = 2167 : 2163
 getChar = 2025 : 217F
getChar1 = 2033 : 202A
    main = 21CE : 2003
   mul16 = 20A7 :
 mul1632 = 20D6 :
mul16321 = 20F8 : 20F5
mul16322 = 20FF : 20FC
  mul16S = 2109 :
 mul16S1 = 2112 : 211E
 mul16S2 = 211D : 2117 211A
mul16_10 = 20C0 : 2188
 mul16_8 = 20C9 :
 putBell = 207F :
 putCRLF = 2066 : 2046 2199 21C1
 putChar = 2059 : 2050 2069 206E 2075 207D 2081 20A2 21B6
putChar1 = 205A : 205F
putErase = 2073 :
 putHexA = 208E : 2085 2089
putHexA1 = 2097 : 2093
putHexA2 = 20A2 : 209E
putHexHL = 2083 :
  putMsg = 203D :
putSpace = 2057 : 2078
 putStr1 = 204B : 2053
 putStr2 = 2055 : 204E
    read = 217B :
   read1 = 217F : 2182 218F 2192
   read2 = 2194 : 2186
  sleep1 = 2007 : 200D 2015
  sleepA = 2011 :
 sleepHL = 2006 :
   start = 2000 :
  writeA = 21C5 : 21BE
 writeHL = 219D : 2196 21C9
writeHL1 = 21A8 : 21A3 21B1
writeHL2 = 21B3 : 21B9
writeHL3 = 21B4 : 21A6
writeLineA = 21BE : 21D0 21F4 220B 2222 2249 2270 2297 22C3 22EC 2315 233F 2366
                : 238D 23A9 23C5 23E1 240E 243B 2468 248F 24B1 24D3 24F8 2518
                : 2538 2552 256C 2586 25AE 25D6 25FE 262B 2655 267F 26AA 26D2
                : 26FA 2711 2728 273F 2766 278D 27B4 27E0 2809 2832 285C 2883
                : 28AA 28C3 28DC 28F5 2920 294B 2976 29A4 29CF 29FA 2A28 2A53
                : 2A7E 2A9C 2ABA 2AD8 2B09 2B3A 2B6B 2B94 2BB8 2BDC 2C05 2C29
                : 2C4D 2C69 2C85 2CA1 2CCD 2CF9 2D25 2D54 2D80 2DAC 2DDB 2E07
                : 2E33 2E4C 2E65 2E7E 2EA9 2ED4 2EFF 2F2D 2F58 2F83 2FB1 2FDC
                : 3007 301F 3037 304F 3076 309D 30C4 30F1 311B 3145 316F 3196
                : 31BD 31DA 31F7 3214 3241 326E 329B 32C3 32E6 3309 332E 334E
                : 336E 3389 33A4 33BF 33E7 340F 3437 3465 3490 34BB 34E6 350E
                : 3536 354E 3566 357E 35A5 35CC 35F3 3620 364A 3674 369E 36C5
                : 36EC 3704 371C 3734 375B 3782 37A9 37D6 3800 382A 3854 387B
                : 38A2 38BF 38DC 38F9 3926 3953 3980 39A8 39CB 39EE 3A13 3A33
                : 3A53 3A6E 3A89 3AA4 3ACC 3AF4 3B1C 3B4A 3B75 3BA0 3BCB 3BF3
                : 3C1B 3C32 3C49 3C60 3C87 3CAE 3CD5 3D01 3D2A 3D53 3D7D 3DA4
                : 3DCB
writeLineHL = 2196 : 21FD 2214 222B 2252 2279 22A0 22CC 22F5 231E 2348 236F 2396
                : 23B2 23CE 23EA 2417 2444 2471 2498 24BA 24DC 2501 2521 2541
                : 255B 2575 258F 25B7 25DF 2607 2634 265E 2688 26B3 26DB 2703
                : 271A 2731 2748 276F 2796 27BD 27E9 2812 283B 2865 288C 28B3
                : 28CC 28E5 28FE 2929 2954 297F 29AD 29D8 2A03 2A31 2A5C 2A87
                : 2AA5 2AC3 2AE1 2B12 2B43 2B74 2B9D 2BC1 2BE5 2C0E 2C32 2C56
                : 2C72 2C8E 2CAA 2CD6 2D02 2D2E 2D5D 2D89 2DB5 2DE4 2E10 2E3C
                : 2E55 2E6E 2E87 2EB2 2EDD 2F08 2F36 2F61 2F8C 2FBA 2FE5 3010
                : 3028 3040 3058 307F 30A6 30CD 30FA 3124 314E 3178 319F 31C6
                : 31E3 3200 321D 324A 3277 32A4 32CC 32EF 3312 3337 3357 3377
                : 3392 33AD 33C8 33F0 3418 3440 346E 3499 34C4 34EF 3517 353F
                : 3557 356F 3587 35AE 35D5 35FC 3629 3653 367D 36A7 36CE 36F5
                : 370D 3725 373D 3764 378B 37B2 37DF 3809 3833 385D 3884 38AB
                : 38C8 38E5 3902 392F 395C 3989 39B1 39D4 39F7 3A1C 3A3C 3A5C
                : 3A77 3A92 3AAD 3AD5 3AFD 3B25 3B53 3B7E 3BA9 3BD4 3BFC 3C24
                : 3C3B 3C52 3C69 3C90 3CB7 3CDE 3D0A 3D33 3D5C 3D86 3DAD 3DD4
                :
writeLineStr = 2043 : 3DDA
writeStr = 204A : 203E 2043
